	.text
	.file	"mas_blk_mq_tag.c"
	.file	1 "/mnt/disk/jenkins/ci/workspace/chipset_pipeline_release/opensource/component_code/vendor/huawei/extra/build/build_script/kirin_kernel_release" "kernel/include/linux/lockdep_types.h"
	.file	2 "/mnt/disk/jenkins/ci/workspace/chipset_pipeline_release/opensource/component_code/vendor/huawei/extra/build/build_script/kirin_kernel_release" "kernel/platform_source/basicplatform/block/mas_blk_mq_tag.c"
	.file	3 "/mnt/disk/jenkins/ci/workspace/chipset_pipeline_release/opensource/component_code/vendor/huawei/extra/build/build_script/kirin_kernel_release" "kernel/include/linux/module.h"
	.file	4 "/mnt/disk/jenkins/ci/workspace/chipset_pipeline_release/opensource/component_code/vendor/huawei/extra/build/build_script/kirin_kernel_release" "kernel/include/linux/hrtimer.h"
	.file	5 "/mnt/disk/jenkins/ci/workspace/chipset_pipeline_release/opensource/component_code/vendor/huawei/extra/build/build_script/kirin_kernel_release" "kernel/include/linux/migrate_mode.h"
	.file	6 "/mnt/disk/jenkins/ci/workspace/chipset_pipeline_release/opensource/component_code/vendor/huawei/extra/build/build_script/kirin_kernel_release" "kernel/include/linux/memremap.h"
	.file	7 "/mnt/disk/jenkins/ci/workspace/chipset_pipeline_release/opensource/component_code/vendor/huawei/extra/build/build_script/kirin_kernel_release" "kernel/include/linux/mm.h"
	.file	8 "/mnt/disk/jenkins/ci/workspace/chipset_pipeline_release/opensource/component_code/vendor/huawei/extra/build/build_script/kirin_kernel_release" "kernel/include/linux/restart_block.h"
	.file	9 "/mnt/disk/jenkins/ci/workspace/chipset_pipeline_release/opensource/component_code/vendor/huawei/extra/build/build_script/kirin_kernel_release" "kernel/include/linux/device/driver.h"
	.file	10 "/mnt/disk/jenkins/ci/workspace/chipset_pipeline_release/opensource/component_code/vendor/huawei/extra/build/build_script/kirin_kernel_release" "kernel/include/linux/device.h"
	.file	11 "/mnt/disk/jenkins/ci/workspace/chipset_pipeline_release/opensource/component_code/vendor/huawei/extra/build/build_script/kirin_kernel_release" "kernel/include/linux/pm.h"
	.file	12 "/mnt/disk/jenkins/ci/workspace/chipset_pipeline_release/opensource/component_code/vendor/huawei/extra/build/build_script/kirin_kernel_release" "kernel/include/linux/kobject_ns.h"
	.file	13 "/mnt/disk/jenkins/ci/workspace/chipset_pipeline_release/opensource/component_code/vendor/huawei/extra/build/build_script/kirin_kernel_release" "kernel/include/linux/backing-dev-defs.h"
	.file	14 "/mnt/disk/jenkins/ci/workspace/chipset_pipeline_release/opensource/component_code/vendor/huawei/extra/build/build_script/kirin_kernel_release" "kernel/include/linux/quota.h"
	.file	15 "/mnt/disk/jenkins/ci/workspace/chipset_pipeline_release/opensource/component_code/vendor/huawei/extra/build/build_script/kirin_kernel_release" "kernel/include/linux/fs.h"
	.file	16 "/mnt/disk/jenkins/ci/workspace/chipset_pipeline_release/opensource/component_code/vendor/huawei/extra/build/build_script/kirin_kernel_release" "kernel/include/linux/pid.h"
	.file	17 "/mnt/disk/jenkins/ci/workspace/chipset_pipeline_release/opensource/component_code/vendor/huawei/extra/build/build_script/kirin_kernel_release" "kernel/include/linux/blkdev.h"
	.file	18 "/mnt/disk/jenkins/ci/workspace/chipset_pipeline_release/opensource/component_code/vendor/huawei/extra/build/build_script/kirin_kernel_release" "kernel/include/linux/elevator.h"
	.file	19 "/mnt/disk/jenkins/ci/workspace/chipset_pipeline_release/opensource/component_code/vendor/huawei/extra/build/build_script/kirin_kernel_release" "kernel/include/platform_include/basicplatform/linux/mas/mas_blk.h"
	.file	20 "/mnt/disk/jenkins/ci/workspace/chipset_pipeline_release/opensource/component_code/vendor/huawei/extra/build/build_script/kirin_kernel_release" "kernel/include/linux/stddef.h"
	.file	21 "/mnt/disk/jenkins/ci/workspace/chipset_pipeline_release/opensource/component_code/vendor/huawei/extra/build/build_script/kirin_kernel_release" "kernel/block/blk-mq-tag.h"
	.file	22 "/mnt/disk/jenkins/ci/workspace/chipset_pipeline_release/opensource/component_code/vendor/huawei/extra/build/build_script/kirin_kernel_release" "kernel/include/linux/blk_types.h"
	.file	23 "/mnt/disk/jenkins/ci/workspace/chipset_pipeline_release/opensource/component_code/vendor/huawei/extra/build/build_script/kirin_kernel_release" "kernel/include/linux/blk-mq.h"
	.file	24 "/mnt/disk/jenkins/ci/workspace/chipset_pipeline_release/opensource/component_code/vendor/huawei/extra/build/build_script/kirin_kernel_release" "kernel/include/linux/slab.h"
	.file	25 "/mnt/disk/jenkins/ci/workspace/chipset_pipeline_release/opensource/component_code/vendor/huawei/extra/build/build_script/kirin_kernel_release" "kernel/include/linux/types.h"
	.file	26 "/mnt/disk/jenkins/ci/workspace/chipset_pipeline_release/opensource/component_code/vendor/huawei/extra/build/build_script/kirin_kernel_release" "kernel/arch/arm64/include/asm/thread_info.h"
	.file	27 "/mnt/disk/jenkins/ci/workspace/chipset_pipeline_release/opensource/component_code/vendor/huawei/extra/build/build_script/kirin_kernel_release" "kernel/include/uapi/asm-generic/int-ll64.h"
	.file	28 "/mnt/disk/jenkins/ci/workspace/chipset_pipeline_release/opensource/component_code/vendor/huawei/extra/build/build_script/kirin_kernel_release" "kernel/include/asm-generic/int-ll64.h"
	.file	29 "/mnt/disk/jenkins/ci/workspace/chipset_pipeline_release/opensource/component_code/vendor/huawei/extra/build/build_script/kirin_kernel_release" "kernel/include/linux/sched.h"
	.file	30 "/mnt/disk/jenkins/ci/workspace/chipset_pipeline_release/opensource/component_code/vendor/huawei/extra/build/build_script/kirin_kernel_release" "kernel/include/linux/refcount.h"
	.file	31 "/mnt/disk/jenkins/ci/workspace/chipset_pipeline_release/opensource/component_code/vendor/huawei/extra/build/build_script/kirin_kernel_release" "kernel/include/uapi/asm-generic/posix_types.h"
	.file	32 "/mnt/disk/jenkins/ci/workspace/chipset_pipeline_release/opensource/component_code/vendor/huawei/extra/build/build_script/kirin_kernel_release" "kernel/include/linux/llist.h"
	.file	33 "/mnt/disk/jenkins/ci/workspace/chipset_pipeline_release/opensource/component_code/vendor/huawei/extra/build/build_script/kirin_kernel_release" "kernel/include/linux/smp_types.h"
	.file	34 "/mnt/disk/jenkins/ci/workspace/chipset_pipeline_release/opensource/component_code/vendor/huawei/extra/build/build_script/kirin_kernel_release" "kernel/include/linux/rbtree.h"
	.file	35 "/mnt/disk/jenkins/ci/workspace/chipset_pipeline_release/opensource/component_code/vendor/huawei/extra/build/build_script/kirin_kernel_release" "kernel/include/linux/timerqueue.h"
	.file	36 "/mnt/disk/jenkins/ci/workspace/chipset_pipeline_release/opensource/component_code/vendor/huawei/extra/build/build_script/kirin_kernel_release" "kernel/include/linux/ktime.h"
	.file	37 "/mnt/disk/jenkins/ci/workspace/chipset_pipeline_release/opensource/component_code/vendor/huawei/extra/build/build_script/kirin_kernel_release" "kernel/include/asm-generic/qspinlock_types.h"
	.file	38 "/mnt/disk/jenkins/ci/workspace/chipset_pipeline_release/opensource/component_code/vendor/huawei/extra/build/build_script/kirin_kernel_release" "kernel/include/linux/spinlock_types.h"
	.file	39 "/mnt/disk/jenkins/ci/workspace/chipset_pipeline_release/opensource/component_code/vendor/huawei/extra/build/build_script/kirin_kernel_release" "kernel/include/linux/seqlock.h"
	.file	40 "/mnt/disk/jenkins/ci/workspace/chipset_pipeline_release/opensource/component_code/vendor/huawei/extra/build/build_script/kirin_kernel_release" "kernel/include/linux/cpumask.h"
	.file	41 "/mnt/disk/jenkins/ci/workspace/chipset_pipeline_release/opensource/component_code/vendor/huawei/extra/build/build_script/kirin_kernel_release" "kernel/include/linux/irq_work.h"
	.file	42 "/mnt/disk/jenkins/ci/workspace/chipset_pipeline_release/opensource/component_code/vendor/huawei/extra/build/build_script/kirin_kernel_release" "kernel/include/linux/plist.h"
	.file	43 "/mnt/disk/jenkins/ci/workspace/chipset_pipeline_release/opensource/component_code/vendor/huawei/extra/build/build_script/kirin_kernel_release" "kernel/include/linux/mm_types.h"
	.file	44 "/mnt/disk/jenkins/ci/workspace/chipset_pipeline_release/opensource/component_code/vendor/huawei/extra/build/build_script/kirin_kernel_release" "kernel/arch/arm64/include/asm/pgtable-types.h"
	.file	45 "/mnt/disk/jenkins/ci/workspace/chipset_pipeline_release/opensource/component_code/vendor/huawei/extra/build/build_script/kirin_kernel_release" "kernel/include/asm-generic/pgtable-nop4d.h"
	.file	46 "/mnt/disk/jenkins/ci/workspace/chipset_pipeline_release/opensource/component_code/vendor/huawei/extra/build/build_script/kirin_kernel_release" "kernel/include/asm-generic/pgtable-nopud.h"
	.file	47 "/mnt/disk/jenkins/ci/workspace/chipset_pipeline_release/opensource/component_code/vendor/huawei/extra/build/build_script/kirin_kernel_release" "kernel/include/linux/uidgid.h"
	.file	48 "/mnt/disk/jenkins/ci/workspace/chipset_pipeline_release/opensource/component_code/vendor/huawei/extra/build/build_script/kirin_kernel_release" "kernel/include/linux/dcache.h"
	.file	49 "/mnt/disk/jenkins/ci/workspace/chipset_pipeline_release/opensource/component_code/vendor/huawei/extra/build/build_script/kirin_kernel_release" "kernel/include/linux/list_bl.h"
	.file	50 "/mnt/disk/jenkins/ci/workspace/chipset_pipeline_release/opensource/component_code/vendor/huawei/extra/build/build_script/kirin_kernel_release" "kernel/include/linux/lockref.h"
	.file	51 "/mnt/disk/jenkins/ci/workspace/chipset_pipeline_release/opensource/component_code/vendor/huawei/extra/build/build_script/kirin_kernel_release" "kernel/include/linux/path.h"
	.file	52 "/mnt/disk/jenkins/ci/workspace/chipset_pipeline_release/opensource/component_code/vendor/huawei/extra/build/build_script/kirin_kernel_release" "kernel/include/linux/kobject.h"
	.file	53 "/mnt/disk/jenkins/ci/workspace/chipset_pipeline_release/opensource/component_code/vendor/huawei/extra/build/build_script/kirin_kernel_release" "kernel/include/linux/sysfs.h"
	.file	54 "/mnt/disk/jenkins/ci/workspace/chipset_pipeline_release/opensource/component_code/vendor/huawei/extra/build/build_script/kirin_kernel_release" "kernel/include/linux/pagemap.h"
	.file	55 "/mnt/disk/jenkins/ci/workspace/chipset_pipeline_release/opensource/component_code/vendor/huawei/extra/build/build_script/kirin_kernel_release" "kernel/include/linux/wait.h"
	.file	56 "/mnt/disk/jenkins/ci/workspace/chipset_pipeline_release/opensource/component_code/vendor/huawei/extra/build/build_script/kirin_kernel_release" "kernel/include/linux/uio.h"
	.file	57 "/mnt/disk/jenkins/ci/workspace/chipset_pipeline_release/opensource/component_code/vendor/huawei/extra/build/build_script/kirin_kernel_release" "kernel/include/uapi/linux/uio.h"
	.file	58 "/mnt/disk/jenkins/ci/workspace/chipset_pipeline_release/opensource/component_code/vendor/huawei/extra/build/build_script/kirin_kernel_release" "kernel/include/linux/bvec.h"
	.file	59 "/mnt/disk/jenkins/ci/workspace/chipset_pipeline_release/opensource/component_code/vendor/huawei/extra/build/build_script/kirin_kernel_release" "kernel/include/uapi/linux/types.h"
	.file	60 "/mnt/disk/jenkins/ci/workspace/chipset_pipeline_release/opensource/component_code/vendor/huawei/extra/build/build_script/kirin_kernel_release" "kernel/include/asm-generic/qrwlock_types.h"
	.file	61 "/mnt/disk/jenkins/ci/workspace/chipset_pipeline_release/opensource/component_code/vendor/huawei/extra/build/build_script/kirin_kernel_release" "kernel/include/linux/rwlock_types.h"
	.file	62 "/mnt/disk/jenkins/ci/workspace/chipset_pipeline_release/opensource/component_code/vendor/huawei/extra/build/build_script/kirin_kernel_release" "kernel/include/linux/nfs_fs_i.h"
	.file	63 "/mnt/disk/jenkins/ci/workspace/chipset_pipeline_release/opensource/component_code/vendor/huawei/extra/build/build_script/kirin_kernel_release" "kernel/include/asm-generic/atomic-long.h"
	.file	64 "/mnt/disk/jenkins/ci/workspace/chipset_pipeline_release/opensource/component_code/vendor/huawei/extra/build/build_script/kirin_kernel_release" "kernel/include/linux/mutex.h"
	.file	65 "/mnt/disk/jenkins/ci/workspace/chipset_pipeline_release/opensource/component_code/vendor/huawei/extra/build/build_script/kirin_kernel_release" "kernel/include/linux/osq_lock.h"
	.file	66 "/mnt/disk/jenkins/ci/workspace/chipset_pipeline_release/opensource/component_code/vendor/huawei/extra/build/build_script/kirin_kernel_release" "kernel/include/linux/kref.h"
	.file	67 "/mnt/disk/jenkins/ci/workspace/chipset_pipeline_release/opensource/component_code/vendor/huawei/extra/build/build_script/kirin_kernel_release" "kernel/include/linux/pid_namespace.h"
	.file	68 "/mnt/disk/jenkins/ci/workspace/chipset_pipeline_release/opensource/component_code/vendor/huawei/extra/build/build_script/kirin_kernel_release" "kernel/include/linux/xarray.h"
	.file	69 "/mnt/disk/jenkins/ci/workspace/chipset_pipeline_release/opensource/component_code/vendor/huawei/extra/build/build_script/kirin_kernel_release" "kernel/include/linux/idr.h"
	.file	70 "/mnt/disk/jenkins/ci/workspace/chipset_pipeline_release/opensource/component_code/vendor/huawei/extra/build/build_script/kirin_kernel_release" "kernel/include/linux/ns_common.h"
	.file	71 "/mnt/disk/jenkins/ci/workspace/chipset_pipeline_release/opensource/component_code/vendor/huawei/extra/build/build_script/kirin_kernel_release" "kernel/include/linux/cred.h"
	.file	72 "/mnt/disk/jenkins/ci/workspace/chipset_pipeline_release/opensource/component_code/vendor/huawei/extra/build/build_script/kirin_kernel_release" "kernel/include/linux/capability.h"
	.file	73 "/mnt/disk/jenkins/ci/workspace/chipset_pipeline_release/opensource/component_code/vendor/huawei/extra/build/build_script/kirin_kernel_release" "kernel/include/linux/key.h"
	.file	74 "/mnt/disk/jenkins/ci/workspace/chipset_pipeline_release/opensource/component_code/vendor/huawei/extra/build/build_script/kirin_kernel_release" "kernel/include/linux/rwsem.h"
	.file	75 "/mnt/disk/jenkins/ci/workspace/chipset_pipeline_release/opensource/component_code/vendor/huawei/extra/build/build_script/kirin_kernel_release" "kernel/include/linux/time64.h"
	.file	76 "/mnt/disk/jenkins/ci/workspace/chipset_pipeline_release/opensource/component_code/vendor/huawei/extra/build/build_script/kirin_kernel_release" "kernel/include/linux/assoc_array.h"
	.file	77 "/mnt/disk/jenkins/ci/workspace/chipset_pipeline_release/opensource/component_code/vendor/huawei/extra/build/build_script/kirin_kernel_release" "kernel/include/linux/sched/user.h"
	.file	78 "/mnt/disk/jenkins/ci/workspace/chipset_pipeline_release/opensource/component_code/vendor/huawei/extra/build/build_script/kirin_kernel_release" "kernel/include/linux/ratelimit_types.h"
	.file	79 "/mnt/disk/jenkins/ci/workspace/chipset_pipeline_release/opensource/component_code/vendor/huawei/extra/build/build_script/kirin_kernel_release" "kernel/include/linux/errseq.h"
	.file	80 "/mnt/disk/jenkins/ci/workspace/chipset_pipeline_release/opensource/component_code/vendor/huawei/extra/build/build_script/kirin_kernel_release" "kernel/include/linux/kernfs.h"
	.file	81 "/mnt/disk/jenkins/ci/workspace/chipset_pipeline_release/opensource/component_code/vendor/huawei/extra/build/build_script/kirin_kernel_release" "kernel/include/linux/completion.h"
	.file	82 "/mnt/disk/jenkins/ci/workspace/chipset_pipeline_release/opensource/component_code/vendor/huawei/extra/build/build_script/kirin_kernel_release" "kernel/include/linux/swait.h"
	.file	83 "/mnt/disk/jenkins/ci/workspace/chipset_pipeline_release/opensource/component_code/vendor/huawei/extra/build/build_script/kirin_kernel_release" "kernel/include/linux/export.h"
	.file	84 "/mnt/disk/jenkins/ci/workspace/chipset_pipeline_release/opensource/component_code/vendor/huawei/extra/build/build_script/kirin_kernel_release" "kernel/include/linux/moduleparam.h"
	.file	85 "/mnt/disk/jenkins/ci/workspace/chipset_pipeline_release/opensource/component_code/vendor/huawei/extra/build/build_script/kirin_kernel_release" "kernel/arch/arm64/include/asm/extable.h"
	.file	86 "/mnt/disk/jenkins/ci/workspace/chipset_pipeline_release/opensource/component_code/vendor/huawei/extra/build/build_script/kirin_kernel_release" "kernel/include/linux/rbtree_latch.h"
	.file	87 "/mnt/disk/jenkins/ci/workspace/chipset_pipeline_release/opensource/component_code/vendor/huawei/extra/build/build_script/kirin_kernel_release" "kernel/arch/arm64/include/asm/module.h"
	.file	88 "/mnt/disk/jenkins/ci/workspace/chipset_pipeline_release/opensource/component_code/vendor/huawei/extra/build/build_script/kirin_kernel_release" "kernel/include/uapi/linux/elf.h"
	.file	89 "/mnt/disk/jenkins/ci/workspace/chipset_pipeline_release/opensource/component_code/vendor/huawei/extra/build/build_script/kirin_kernel_release" "kernel/include/asm-generic/bug.h"
	.file	90 "/mnt/disk/jenkins/ci/workspace/chipset_pipeline_release/opensource/component_code/vendor/huawei/extra/build/build_script/kirin_kernel_release" "kernel/include/linux/tracepoint-defs.h"
	.file	91 "/mnt/disk/jenkins/ci/workspace/chipset_pipeline_release/opensource/component_code/vendor/huawei/extra/build/build_script/kirin_kernel_release" "kernel/include/linux/srcutree.h"
	.file	92 "/mnt/disk/jenkins/ci/workspace/chipset_pipeline_release/opensource/component_code/vendor/huawei/extra/build/build_script/kirin_kernel_release" "kernel/include/linux/rcu_segcblist.h"
	.file	93 "/mnt/disk/jenkins/ci/workspace/chipset_pipeline_release/opensource/component_code/vendor/huawei/extra/build/build_script/kirin_kernel_release" "kernel/include/linux/timer.h"
	.file	94 "/mnt/disk/jenkins/ci/workspace/chipset_pipeline_release/opensource/component_code/vendor/huawei/extra/build/build_script/kirin_kernel_release" "kernel/include/linux/workqueue.h"
	.file	95 "/mnt/disk/jenkins/ci/workspace/chipset_pipeline_release/opensource/component_code/vendor/huawei/extra/build/build_script/kirin_kernel_release" "kernel/include/linux/projid.h"
	.file	96 "/mnt/disk/jenkins/ci/workspace/chipset_pipeline_release/opensource/component_code/vendor/huawei/extra/build/build_script/kirin_kernel_release" "kernel/include/linux/shrinker.h"
	.file	97 "/mnt/disk/jenkins/ci/workspace/chipset_pipeline_release/opensource/component_code/vendor/huawei/extra/build/build_script/kirin_kernel_release" "kernel/include/linux/genhd.h"
	.file	98 "/mnt/disk/jenkins/ci/workspace/chipset_pipeline_release/opensource/component_code/vendor/huawei/extra/build/build_script/kirin_kernel_release" "kernel/include/linux/percpu-refcount.h"
	.file	99 "/mnt/disk/jenkins/ci/workspace/chipset_pipeline_release/opensource/component_code/vendor/huawei/extra/build/build_script/kirin_kernel_release" "kernel/include/linux/device/bus.h"
	.file	100 "/mnt/disk/jenkins/ci/workspace/chipset_pipeline_release/opensource/component_code/vendor/huawei/extra/build/build_script/kirin_kernel_release" "kernel/include/linux/pm_wakeup.h"
	.file	101 "/mnt/disk/jenkins/ci/workspace/chipset_pipeline_release/opensource/component_code/vendor/huawei/extra/build/build_script/kirin_kernel_release" "kernel/include/linux/energy_model.h"
	.file	102 "/mnt/disk/jenkins/ci/workspace/chipset_pipeline_release/opensource/component_code/vendor/huawei/extra/build/build_script/kirin_kernel_release" "kernel/arch/arm64/include/asm/device.h"
	.file	103 "/mnt/disk/jenkins/ci/workspace/chipset_pipeline_release/opensource/component_code/vendor/huawei/extra/build/build_script/kirin_kernel_release" "kernel/include/linux/fwnode.h"
	.file	104 "/mnt/disk/jenkins/ci/workspace/chipset_pipeline_release/opensource/component_code/vendor/huawei/extra/build/build_script/kirin_kernel_release" "kernel/include/linux/device/class.h"
	.file	105 "/mnt/disk/jenkins/ci/workspace/chipset_pipeline_release/opensource/component_code/vendor/huawei/extra/build/build_script/kirin_kernel_release" "kernel/block/blk-mq.h"
	.file	106 "/mnt/disk/jenkins/ci/workspace/chipset_pipeline_release/opensource/component_code/vendor/huawei/extra/build/build_script/kirin_kernel_release" "kernel/include/linux/sbitmap.h"
	.file	107 "/mnt/disk/jenkins/ci/workspace/chipset_pipeline_release/opensource/component_code/vendor/huawei/extra/build/build_script/kirin_kernel_release" "kernel/include/linux/notifier.h"
	.file	108 "/mnt/disk/jenkins/ci/workspace/chipset_pipeline_release/opensource/component_code/vendor/huawei/extra/build/build_script/kirin_kernel_release" "kernel/include/linux/iocontext.h"
	.file	109 "/mnt/disk/jenkins/ci/workspace/chipset_pipeline_release/opensource/component_code/vendor/huawei/extra/build/build_script/kirin_kernel_release" "kernel/include/linux/smp.h"
	.file	110 "/mnt/disk/jenkins/ci/workspace/chipset_pipeline_release/opensource/component_code/vendor/huawei/extra/build/build_script/kirin_kernel_release" "kernel/include/linux/percpu_counter.h"
	.file	111 "/mnt/disk/jenkins/ci/workspace/chipset_pipeline_release/opensource/component_code/vendor/huawei/extra/build/build_script/kirin_kernel_release" "kernel/include/linux/flex_proportions.h"
	.file	112 "/mnt/disk/jenkins/ci/workspace/chipset_pipeline_release/opensource/component_code/vendor/huawei/extra/build/build_script/kirin_kernel_release" "kernel/block/blk-stat.h"
	.file	113 "/mnt/disk/jenkins/ci/workspace/chipset_pipeline_release/opensource/component_code/vendor/huawei/extra/build/build_script/kirin_kernel_release" "kernel/include/linux/bsg.h"
	.file	114 "/mnt/disk/jenkins/ci/workspace/chipset_pipeline_release/opensource/component_code/vendor/huawei/extra/build/build_script/kirin_kernel_release" "kernel/include/uapi/linux/bsg.h"
	.file	115 "/mnt/disk/jenkins/ci/workspace/chipset_pipeline_release/opensource/component_code/vendor/huawei/extra/build/build_script/kirin_kernel_release" "kernel/include/linux/bio.h"
	.file	116 "/mnt/disk/jenkins/ci/workspace/chipset_pipeline_release/opensource/component_code/vendor/huawei/extra/build/build_script/kirin_kernel_release" "kernel/include/linux/mempool.h"
	.file	117 "/mnt/disk/jenkins/ci/workspace/chipset_pipeline_release/opensource/component_code/vendor/huawei/extra/build/build_script/kirin_kernel_release" "kernel/include/uapi/linux/time_types.h"
	.file	118 "/mnt/disk/jenkins/ci/workspace/chipset_pipeline_release/opensource/component_code/vendor/huawei/extra/build/build_script/kirin_kernel_release" "kernel/include/uapi/linux/blkzoned.h"
	.file	119 "/mnt/disk/jenkins/ci/workspace/chipset_pipeline_release/opensource/component_code/vendor/huawei/extra/build/build_script/kirin_kernel_release" "kernel/include/linux/rcu_sync.h"
	.file	120 "/mnt/disk/jenkins/ci/workspace/chipset_pipeline_release/opensource/component_code/vendor/huawei/extra/build/build_script/kirin_kernel_release" "kernel/include/linux/percpu-rwsem.h"
	.file	121 "/mnt/disk/jenkins/ci/workspace/chipset_pipeline_release/opensource/component_code/vendor/huawei/extra/build/build_script/kirin_kernel_release" "kernel/include/linux/rcuwait.h"
	.file	122 "/mnt/disk/jenkins/ci/workspace/chipset_pipeline_release/opensource/component_code/vendor/huawei/extra/build/build_script/kirin_kernel_release" "kernel/include/linux/uuid.h"
	.file	123 "/mnt/disk/jenkins/ci/workspace/chipset_pipeline_release/opensource/component_code/vendor/huawei/extra/build/build_script/kirin_kernel_release" "kernel/include/linux/list_lru.h"
	.file	124 "/mnt/disk/jenkins/ci/workspace/chipset_pipeline_release/opensource/component_code/vendor/huawei/extra/build/build_script/kirin_kernel_release" "kernel/include/linux/delayed_call.h"
	.file	125 "/mnt/disk/jenkins/ci/workspace/chipset_pipeline_release/opensource/component_code/vendor/huawei/extra/build/build_script/kirin_kernel_release" "kernel/include/linux/stat.h"
	.file	126 "/mnt/disk/jenkins/ci/workspace/chipset_pipeline_release/opensource/component_code/vendor/huawei/extra/build/build_script/kirin_kernel_release" "kernel/include/linux/mmzone.h"
	.file	127 "/mnt/disk/jenkins/ci/workspace/chipset_pipeline_release/opensource/component_code/vendor/huawei/extra/build/build_script/kirin_kernel_release" "kernel/arch/arm64/include/asm/page.h"
	.file	128 "/mnt/disk/jenkins/ci/workspace/chipset_pipeline_release/opensource/component_code/vendor/huawei/extra/build/build_script/kirin_kernel_release" "kernel/include/linux/range.h"
	.file	129 "/mnt/disk/jenkins/ci/workspace/chipset_pipeline_release/opensource/component_code/vendor/huawei/extra/build/build_script/kirin_kernel_release" "kernel/include/linux/mm_types_task.h"
	.file	130 "/mnt/disk/jenkins/ci/workspace/chipset_pipeline_release/opensource/component_code/vendor/huawei/extra/build/build_script/kirin_kernel_release" "kernel/arch/arm64/include/asm/mmu.h"
	.file	131 "/mnt/disk/jenkins/ci/workspace/chipset_pipeline_release/opensource/component_code/vendor/huawei/extra/build/build_script/kirin_kernel_release" "kernel/include/linux/uprobes.h"
	.file	132 "/mnt/disk/jenkins/ci/workspace/chipset_pipeline_release/opensource/component_code/vendor/huawei/extra/build/build_script/kirin_kernel_release" "kernel/include/linux/xreclaimer_types.h"
	.file	133 "/mnt/disk/jenkins/ci/workspace/chipset_pipeline_release/opensource/component_code/vendor/huawei/extra/build/build_script/kirin_kernel_release" "kernel/include/vdso/time32.h"
	.file	134 "/mnt/disk/jenkins/ci/workspace/chipset_pipeline_release/opensource/component_code/vendor/huawei/extra/build/build_script/kirin_kernel_release" "kernel/include/linux/posix-timers.h"
	.file	135 "/mnt/disk/jenkins/ci/workspace/chipset_pipeline_release/opensource/component_code/vendor/huawei/extra/build/build_script/kirin_kernel_release" "kernel/include/linux/nsproxy.h"
	.file	136 "/mnt/disk/jenkins/ci/workspace/chipset_pipeline_release/opensource/component_code/vendor/huawei/extra/build/build_script/kirin_kernel_release" "kernel/include/linux/sched/signal.h"
	.file	137 "/mnt/disk/jenkins/ci/workspace/chipset_pipeline_release/opensource/component_code/vendor/huawei/extra/build/build_script/kirin_kernel_release" "kernel/include/linux/signal_types.h"
	.file	138 "/mnt/disk/jenkins/ci/workspace/chipset_pipeline_release/opensource/component_code/vendor/huawei/extra/build/build_script/kirin_kernel_release" "kernel/include/uapi/asm-generic/signal.h"
	.file	139 "/mnt/disk/jenkins/ci/workspace/chipset_pipeline_release/opensource/component_code/vendor/huawei/extra/build/build_script/kirin_kernel_release" "kernel/include/linux/task_io_accounting.h"
	.file	140 "/mnt/disk/jenkins/ci/workspace/chipset_pipeline_release/opensource/component_code/vendor/huawei/extra/build/build_script/kirin_kernel_release" "kernel/include/uapi/linux/resource.h"
	.file	141 "/mnt/disk/jenkins/ci/workspace/chipset_pipeline_release/opensource/component_code/vendor/huawei/extra/build/build_script/kirin_kernel_release" "kernel/include/uapi/asm-generic/signal-defs.h"
	.file	142 "/mnt/disk/jenkins/ci/workspace/chipset_pipeline_release/opensource/component_code/vendor/huawei/extra/build/build_script/kirin_kernel_release" "kernel/include/linux/seccomp.h"
	.file	143 "/mnt/disk/jenkins/ci/workspace/chipset_pipeline_release/opensource/component_code/vendor/huawei/extra/build/build_script/kirin_kernel_release" "kernel/include/uapi/asm-generic/siginfo.h"
	.file	144 "/mnt/disk/jenkins/ci/workspace/chipset_pipeline_release/opensource/component_code/vendor/huawei/extra/build/build_script/kirin_kernel_release" "kernel/include/linux/nodemask.h"
	.file	145 "/mnt/disk/jenkins/ci/workspace/chipset_pipeline_release/opensource/component_code/vendor/huawei/extra/build/build_script/kirin_kernel_release" "kernel/include/asm-generic/compat.h"
	.file	146 "/mnt/disk/jenkins/ci/workspace/chipset_pipeline_release/opensource/component_code/vendor/huawei/extra/build/build_script/kirin_kernel_release" "kernel/include/linux/compat.h"
	.file	147 "/mnt/disk/jenkins/ci/workspace/chipset_pipeline_release/opensource/component_code/vendor/huawei/extra/build/build_script/kirin_kernel_release" "kernel/arch/arm64/include/asm/processor.h"
	.file	148 "/mnt/disk/jenkins/ci/workspace/chipset_pipeline_release/opensource/component_code/vendor/huawei/extra/build/build_script/kirin_kernel_release" "kernel/arch/arm64/include/uapi/asm/ptrace.h"
	.globl	ufs_tagset_tag_busy_iter        // -- Begin function ufs_tagset_tag_busy_iter
	.p2align	2
	.type	ufs_tagset_tag_busy_iter,@function
ufs_tagset_tag_busy_iter:               // @ufs_tagset_tag_busy_iter
.Lfunc_begin0:
	.loc	2 75 0                          // kernel/platform_source/basicplatform/block/mas_blk_mq_tag.c:75:0
	.cfi_sections .debug_frame
	.cfi_startproc
// %bb.0:
	//DEBUG_VALUE: ufs_tagset_tag_busy_iter:hctx <- $x0
	//DEBUG_VALUE: ufs_tagset_tag_busy_iter:hctx <- $x0
	//DEBUG_VALUE: ufs_tagset_tag_busy_iter:fn <- $x1
	//DEBUG_VALUE: ufs_tagset_tag_busy_iter:fn <- $x1
	//DEBUG_VALUE: ufs_tagset_tag_busy_iter:priv <- $x2
	//DEBUG_VALUE: ufs_tagset_tag_busy_iter:priv <- $x2
	sub	sp, sp, #64                     // =64
	stp	x29, x30, [sp, #32]             // 16-byte Folded Spill
	str	x19, [sp, #48]                  // 8-byte Folded Spill
	add	x29, sp, #32                    // =32
	.cfi_def_cfa w29, 32
	.cfi_offset w19, -16
	.cfi_offset w30, -24
	.cfi_offset w29, -32
.Ltmp0:
	.loc	2 77 35 prologue_end            // kernel/platform_source/basicplatform/block/mas_blk_mq_tag.c:77:35
	ldr	x19, [x0, #336]
.Ltmp1:
	//DEBUG_VALUE: ufs_tagset_tag_busy_iter:tags <- $x19
	.loc	2 79 17                         // kernel/platform_source/basicplatform/block/mas_blk_mq_tag.c:79:17
	stp	x0, x1, [sp]
	.loc	2 81 17                         // kernel/platform_source/basicplatform/block/mas_blk_mq_tag.c:81:17
	str	x2, [sp, #16]
	.loc	2 82 21                         // kernel/platform_source/basicplatform/block/mas_blk_mq_tag.c:82:21
	strh	wzr, [sp, #24]
	.loc	2 86 31                         // kernel/platform_source/basicplatform/block/mas_blk_mq_tag.c:86:31
	ldr	x0, [x19, #40]
.Ltmp2:
	//DEBUG_VALUE: ufs_tagset_tag_busy_iter:hctx <- [DW_OP_LLVM_entry_value 1] $x0
	.loc	2 86 2 is_stmt 0                // kernel/platform_source/basicplatform/block/mas_blk_mq_tag.c:86:2
	mov	x1, sp
.Ltmp3:
	//DEBUG_VALUE: ufs_tagset_tag_busy_iter:fn <- [DW_OP_LLVM_entry_value 1] $x1
	bl	ufs_tagset_bt_for_each
.Ltmp4:
	//DEBUG_VALUE: ufs_tagset_tag_busy_iter:priv <- [DW_OP_LLVM_entry_value 1] $x2
	.loc	2 91 12 is_stmt 1               // kernel/platform_source/basicplatform/block/mas_blk_mq_tag.c:91:12
	ldr	w8, [x19, #8]
.Ltmp5:
	.loc	2 91 6 is_stmt 0                // kernel/platform_source/basicplatform/block/mas_blk_mq_tag.c:91:6
	cbz	w8, .LBB0_2
.Ltmp6:
// %bb.1:
	//DEBUG_VALUE: ufs_tagset_tag_busy_iter:tags <- $x19
	//DEBUG_VALUE: ufs_tagset_tag_busy_iter:priv <- [DW_OP_LLVM_entry_value 1] $x2
	//DEBUG_VALUE: ufs_tagset_tag_busy_iter:fn <- [DW_OP_LLVM_entry_value 1] $x1
	//DEBUG_VALUE: ufs_tagset_tag_busy_iter:hctx <- [DW_OP_LLVM_entry_value 1] $x0
	.loc	2 0 6                           // kernel/platform_source/basicplatform/block/mas_blk_mq_tag.c:0:6
	mov	w8, #1
.Ltmp7:
	.loc	2 93 33 is_stmt 1               // kernel/platform_source/basicplatform/block/mas_blk_mq_tag.c:93:33
	add	x0, x19, #56                    // =56
	.loc	2 93 3 is_stmt 0                // kernel/platform_source/basicplatform/block/mas_blk_mq_tag.c:93:3
	mov	x1, sp
	.loc	2 92 19 is_stmt 1               // kernel/platform_source/basicplatform/block/mas_blk_mq_tag.c:92:19
	strb	w8, [sp, #25]
	.loc	2 93 3                          // kernel/platform_source/basicplatform/block/mas_blk_mq_tag.c:93:3
	bl	ufs_tagset_bt_for_each
.Ltmp8:
.LBB0_2:
	//DEBUG_VALUE: ufs_tagset_tag_busy_iter:tags <- $x19
	//DEBUG_VALUE: ufs_tagset_tag_busy_iter:priv <- [DW_OP_LLVM_entry_value 1] $x2
	//DEBUG_VALUE: ufs_tagset_tag_busy_iter:fn <- [DW_OP_LLVM_entry_value 1] $x1
	//DEBUG_VALUE: ufs_tagset_tag_busy_iter:hctx <- [DW_OP_LLVM_entry_value 1] $x0
	.loc	2 96 12                         // kernel/platform_source/basicplatform/block/mas_blk_mq_tag.c:96:12
	ldr	w8, [x19, #4]
.Ltmp9:
	.loc	2 96 6 is_stmt 0                // kernel/platform_source/basicplatform/block/mas_blk_mq_tag.c:96:6
	cbz	w8, .LBB0_4
.Ltmp10:
// %bb.3:
	//DEBUG_VALUE: ufs_tagset_tag_busy_iter:tags <- $x19
	//DEBUG_VALUE: ufs_tagset_tag_busy_iter:priv <- [DW_OP_LLVM_entry_value 1] $x2
	//DEBUG_VALUE: ufs_tagset_tag_busy_iter:fn <- [DW_OP_LLVM_entry_value 1] $x1
	//DEBUG_VALUE: ufs_tagset_tag_busy_iter:hctx <- [DW_OP_LLVM_entry_value 1] $x0
	.loc	2 0 6                           // kernel/platform_source/basicplatform/block/mas_blk_mq_tag.c:0:6
	mov	w8, #1
.Ltmp11:
	.loc	2 97 22 is_stmt 1               // kernel/platform_source/basicplatform/block/mas_blk_mq_tag.c:97:22
	strh	w8, [sp, #24]
	.loc	2 100 32                        // kernel/platform_source/basicplatform/block/mas_blk_mq_tag.c:100:32
	ldr	x0, [x19, #48]
	.loc	2 100 3 is_stmt 0               // kernel/platform_source/basicplatform/block/mas_blk_mq_tag.c:100:3
	mov	x1, sp
	bl	ufs_tagset_bt_for_each
.Ltmp12:
.LBB0_4:
	//DEBUG_VALUE: ufs_tagset_tag_busy_iter:tags <- $x19
	//DEBUG_VALUE: ufs_tagset_tag_busy_iter:priv <- [DW_OP_LLVM_entry_value 1] $x2
	//DEBUG_VALUE: ufs_tagset_tag_busy_iter:fn <- [DW_OP_LLVM_entry_value 1] $x1
	//DEBUG_VALUE: ufs_tagset_tag_busy_iter:hctx <- [DW_OP_LLVM_entry_value 1] $x0
	.loc	2 105 1 is_stmt 1               // kernel/platform_source/basicplatform/block/mas_blk_mq_tag.c:105:1
	ldr	x19, [sp, #48]                  // 8-byte Folded Reload
.Ltmp13:
	ldp	x29, x30, [sp, #32]             // 16-byte Folded Reload
	add	sp, sp, #64                     // =64
	ret
.Ltmp14:
.Lfunc_end0:
	.size	ufs_tagset_tag_busy_iter, .Lfunc_end0-ufs_tagset_tag_busy_iter
	.cfi_endproc
                                        // -- End function
	.p2align	2                               // -- Begin function ufs_tagset_bt_for_each
	.type	ufs_tagset_bt_for_each,@function
ufs_tagset_bt_for_each:                 // @ufs_tagset_bt_for_each
.Lfunc_begin1:
	.loc	2 69 0                          // kernel/platform_source/basicplatform/block/mas_blk_mq_tag.c:69:0
	.cfi_startproc
// %bb.0:
	//DEBUG_VALUE: ufs_tagset_bt_for_each:bt <- $x0
	//DEBUG_VALUE: ufs_tagset_bt_for_each:iter_data <- $x1
	//DEBUG_VALUE: __sbitmap_for_each_set:data <- undef
	//DEBUG_VALUE: __sbitmap_for_each_set:start <- 0
	//DEBUG_VALUE: __sbitmap_for_each_set:sb <- $x0
	//DEBUG_VALUE: sbitmap_for_each_set:data <- undef
	//DEBUG_VALUE: sbitmap_for_each_set:sb <- $x0
	//DEBUG_VALUE: ufs_tagset_bt_for_each:bt <- $x0
	sub	sp, sp, #96                     // =96
	stp	x29, x30, [sp, #16]             // 16-byte Folded Spill
	stp	x26, x25, [sp, #32]             // 16-byte Folded Spill
	stp	x24, x23, [sp, #48]             // 16-byte Folded Spill
	stp	x22, x21, [sp, #64]             // 16-byte Folded Spill
	stp	x20, x19, [sp, #80]             // 16-byte Folded Spill
	add	x29, sp, #16                    // =16
	.cfi_def_cfa w29, 80
	.cfi_offset w19, -8
	.cfi_offset w20, -16
	.cfi_offset w21, -24
	.cfi_offset w22, -32
	.cfi_offset w23, -40
	.cfi_offset w24, -48
	.cfi_offset w25, -56
	.cfi_offset w26, -64
	.cfi_offset w30, -72
	.cfi_offset w29, -80
.Ltmp15:
	//DEBUG_VALUE: __sbitmap_for_each_set:nr <- 0
	//DEBUG_VALUE: __sbitmap_for_each_set:index <- 0
	//DEBUG_VALUE: __sbitmap_for_each_set:scanned <- 0
	.loc	106 247 23 prologue_end         // kernel/include/linux/sbitmap.h:247:23
	ldr	w8, [x0]
	//DEBUG_VALUE: ufs_tagset_bt_for_each:iter_data <- $x1
	.loc	106 247 2 is_stmt 0             // kernel/include/linux/sbitmap.h:247:2
	cbz	w8, .LBB1_15
.Ltmp16:
// %bb.1:
	//DEBUG_VALUE: ufs_tagset_bt_for_each:iter_data <- $x1
	//DEBUG_VALUE: sbitmap_for_each_set:sb <- $x0
	//DEBUG_VALUE: __sbitmap_for_each_set:sb <- $x0
	//DEBUG_VALUE: ufs_tagset_bt_for_each:bt <- $x0
	//DEBUG_VALUE: __sbitmap_for_each_set:scanned <- 0
	//DEBUG_VALUE: __sbitmap_for_each_set:index <- 0
	//DEBUG_VALUE: __sbitmap_for_each_set:nr <- 0
	//DEBUG_VALUE: __sbitmap_for_each_set:start <- 0
	.loc	106 0 2                         // kernel/include/linux/sbitmap.h:0:2
	mov	x19, x0
.Ltmp17:
	//DEBUG_VALUE: ufs_tagset_bt_for_each:bt <- $x19
	//DEBUG_VALUE: ufs_tagset_bt_for_each:bt <- $x19
	//DEBUG_VALUE: sbitmap_for_each_set:sb <- $x19
	//DEBUG_VALUE: __sbitmap_for_each_set:sb <- $x19
	mov	x20, x1
.Ltmp18:
	//DEBUG_VALUE: ufs_tagset_bt_for_each:iter_data <- $x20
	//DEBUG_VALUE: ufs_tagset_bt_for_each:iter_data <- $x20
	//DEBUG_VALUE: sbitmap_for_each_set:sb <- $x19
	//DEBUG_VALUE: __sbitmap_for_each_set:sb <- $x19
	mov	w23, wzr
	mov	w24, wzr
	mov	w25, #192
	b	.LBB1_3
.Ltmp19:
.LBB1_2:                                //   in Loop: Header=BB1_3 Depth=1
	//DEBUG_VALUE: ufs_tagset_bt_for_each:iter_data <- $x20
	//DEBUG_VALUE: __sbitmap_for_each_set:sb <- $x19
	//DEBUG_VALUE: sbitmap_for_each_set:sb <- $x19
	//DEBUG_VALUE: ufs_tagset_bt_for_each:bt <- $x19
	//DEBUG_VALUE: depth <- $w26
	//DEBUG_VALUE: __sbitmap_for_each_set:index <- $w23
	//DEBUG_VALUE: __sbitmap_for_each_set:start <- 0
	//DEBUG_LABEL: next
	.loc	106 275 22 is_stmt 1            // kernel/include/linux/sbitmap.h:275:22
	ldr	w9, [x19, #8]
.Ltmp20:
	.loc	106 247 23                      // kernel/include/linux/sbitmap.h:247:23
	ldr	w8, [x19]
.Ltmp21:
	.loc	106 275 7                       // kernel/include/linux/sbitmap.h:275:7
	add	w10, w23, #1                    // =1
.Ltmp22:
	//DEBUG_VALUE: __sbitmap_for_each_set:index <- $w10
	.loc	106 0 0 is_stmt 0               // kernel/include/linux/sbitmap.h:0:0
	add	w24, w26, w24
.Ltmp23:
	//DEBUG_VALUE: __sbitmap_for_each_set:nr <- 0
	//DEBUG_VALUE: __sbitmap_for_each_set:scanned <- $w24
	.loc	106 275 7                       // kernel/include/linux/sbitmap.h:275:7
	cmp	w10, w9
	csinc	w23, wzr, w23, hs
.Ltmp24:
	//DEBUG_VALUE: __sbitmap_for_each_set:index <- $w23
	.loc	106 247 2 is_stmt 1             // kernel/include/linux/sbitmap.h:247:2
	cmp	w8, w24
	b.ls	.LBB1_15
.Ltmp25:
.LBB1_3:                                // =>This Loop Header: Depth=1
                                        //     Child Loop BB1_6 Depth 2
	//DEBUG_VALUE: ufs_tagset_bt_for_each:iter_data <- $x20
	//DEBUG_VALUE: __sbitmap_for_each_set:sb <- $x19
	//DEBUG_VALUE: sbitmap_for_each_set:sb <- $x19
	//DEBUG_VALUE: ufs_tagset_bt_for_each:bt <- $x19
	//DEBUG_VALUE: __sbitmap_for_each_set:nr <- 0
	//DEBUG_VALUE: __sbitmap_for_each_set:start <- 0
	//DEBUG_VALUE: __sbitmap_for_each_set:scanned <- $w24
	//DEBUG_VALUE: __sbitmap_for_each_set:index <- $w23
	.loc	106 249 24                      // kernel/include/linux/sbitmap.h:249:24
	ldr	x9, [x19, #16]
	sub	w8, w8, w24
.Ltmp26:
	//DEBUG_VALUE: __UNIQUE_ID___y230 <- $w8
	//DEBUG_VALUE: __UNIQUE_ID___x229 <- $w10
	umaddl	x9, w23, w25, x9
	ldr	w10, [x9]
.Ltmp27:
	//DEBUG_VALUE: __UNIQUE_ID___x229 <- $w10
	.loc	106 254 25                      // kernel/include/linux/sbitmap.h:254:25
	ldr	x11, [x9, #64]
	.loc	106 254 48 is_stmt 0            // kernel/include/linux/sbitmap.h:254:48
	ldr	x9, [x9, #128]
.Ltmp28:
	.loc	106 249 24 is_stmt 1            // kernel/include/linux/sbitmap.h:249:24
	cmp	w8, w10
	csel	w26, w10, w8, hi
.Ltmp29:
	//DEBUG_VALUE: depth <- $w26
	//DEBUG_VALUE: __sbitmap_for_each_set:scanned <- undef
	.loc	106 254 30                      // kernel/include/linux/sbitmap.h:254:30
	bics	x8, x11, x9
.Ltmp30:
	//DEBUG_VALUE: word <- $x8
	.loc	106 254 8 is_stmt 0             // kernel/include/linux/sbitmap.h:254:8
	str	x8, [sp, #8]
	.loc	106 255 7 is_stmt 1             // kernel/include/linux/sbitmap.h:255:7
	b.eq	.LBB1_2
.Ltmp31:
// %bb.4:                               //   in Loop: Header=BB1_3 Depth=1
	//DEBUG_VALUE: ufs_tagset_bt_for_each:iter_data <- $x20
	//DEBUG_VALUE: __sbitmap_for_each_set:sb <- $x19
	//DEBUG_VALUE: sbitmap_for_each_set:sb <- $x19
	//DEBUG_VALUE: ufs_tagset_bt_for_each:bt <- $x19
	//DEBUG_VALUE: word <- $x8
	//DEBUG_VALUE: depth <- $w26
	//DEBUG_VALUE: __sbitmap_for_each_set:index <- $w23
	//DEBUG_VALUE: __sbitmap_for_each_set:nr <- 0
	//DEBUG_VALUE: __sbitmap_for_each_set:start <- 0
	//DEBUG_VALUE: __sbitmap_for_each_set:nr <- undef
	.loc	106 265 30                      // kernel/include/linux/sbitmap.h:265:30
	mov	w21, w26
.Ltmp32:
	//DEBUG_VALUE: word <- [DW_OP_plus_uconst 8, DW_OP_deref] $sp
	.loc	106 265 9 is_stmt 0             // kernel/include/linux/sbitmap.h:265:9
	add	x0, sp, #8                      // =8
	mov	x1, x21
	mov	x2, xzr
	b	.LBB1_6
.Ltmp33:
.LBB1_5:                                //   in Loop: Header=BB1_6 Depth=2
	//DEBUG_VALUE: ufs_tagset_bt_for_each:iter_data <- $x20
	//DEBUG_VALUE: __sbitmap_for_each_set:sb <- $x19
	//DEBUG_VALUE: sbitmap_for_each_set:sb <- $x19
	//DEBUG_VALUE: ufs_tagset_bt_for_each:bt <- $x19
	//DEBUG_VALUE: depth <- $w26
	//DEBUG_VALUE: __sbitmap_for_each_set:index <- $w23
	//DEBUG_VALUE: __sbitmap_for_each_set:nr <- $w22
	//DEBUG_VALUE: word <- [DW_OP_plus_uconst 8, DW_OP_deref] $sp
	//DEBUG_VALUE: __sbitmap_for_each_set:start <- 0
	//DEBUG_VALUE: __sbitmap_for_each_set:nr <- [DW_OP_plus_uconst 1, DW_OP_stack_value] $w22
	.loc	106 271 6 is_stmt 1             // kernel/include/linux/sbitmap.h:271:6
	add	w2, w22, #1                     // =1
	//DEBUG_VALUE: word <- [DW_OP_plus_uconst 8, DW_OP_deref] $sp
.Ltmp34:
	//DEBUG_VALUE: __sbitmap_for_each_set:nr <- undef
	.loc	106 265 9                       // kernel/include/linux/sbitmap.h:265:9
	add	x0, sp, #8                      // =8
	mov	x1, x21
.Ltmp35:
.LBB1_6:                                //   Parent Loop BB1_3 Depth=1
                                        // =>  This Inner Loop Header: Depth=2
	//DEBUG_VALUE: ufs_tagset_bt_for_each:iter_data <- $x20
	//DEBUG_VALUE: __sbitmap_for_each_set:sb <- $x19
	//DEBUG_VALUE: sbitmap_for_each_set:sb <- $x19
	//DEBUG_VALUE: ufs_tagset_bt_for_each:bt <- $x19
	//DEBUG_VALUE: depth <- $w26
	//DEBUG_VALUE: __sbitmap_for_each_set:index <- $w23
	//DEBUG_VALUE: word <- [DW_OP_plus_uconst 8, DW_OP_deref] $sp
	//DEBUG_VALUE: __sbitmap_for_each_set:start <- 0
	bl	find_next_bit
.Ltmp36:
	mov	x22, x0
.Ltmp37:
	//DEBUG_VALUE: __sbitmap_for_each_set:nr <- $w22
	.loc	106 266 8                       // kernel/include/linux/sbitmap.h:266:8
	cmp	w26, w22
	b.ls	.LBB1_2
.Ltmp38:
// %bb.7:                               //   in Loop: Header=BB1_6 Depth=2
	//DEBUG_VALUE: ufs_tagset_bt_for_each:iter_data <- $x20
	//DEBUG_VALUE: __sbitmap_for_each_set:sb <- $x19
	//DEBUG_VALUE: sbitmap_for_each_set:sb <- $x19
	//DEBUG_VALUE: ufs_tagset_bt_for_each:bt <- $x19
	//DEBUG_VALUE: depth <- $w26
	//DEBUG_VALUE: __sbitmap_for_each_set:index <- $w23
	//DEBUG_VALUE: __sbitmap_for_each_set:nr <- $w22
	//DEBUG_VALUE: word <- [DW_OP_plus_uconst 8, DW_OP_deref] $sp
	//DEBUG_VALUE: __sbitmap_for_each_set:start <- 0
	.loc	2 46 42                         // kernel/platform_source/basicplatform/block/mas_blk_mq_tag.c:46:42
	ldr	x0, [x20]
.Ltmp39:
	//DEBUG_VALUE: ufs_tagset_bt_iter:hctx <- $x0
	.loc	106 268 30                      // kernel/include/linux/sbitmap.h:268:30
	ldr	w10, [x19, #4]
.Ltmp40:
	.loc	2 50 17                         // kernel/platform_source/basicplatform/block/mas_blk_mq_tag.c:50:17
	ldrb	w8, [x20, #24]
.Ltmp41:
	//DEBUG_VALUE: ufs_tagset_bt_iter:hctx <- $x0
	.loc	2 47 35                         // kernel/platform_source/basicplatform/block/mas_blk_mq_tag.c:47:35
	ldr	x9, [x0, #336]
.Ltmp42:
	//DEBUG_VALUE: ufs_tagset_bt_iter:rq <- 0
	//DEBUG_VALUE: ufs_tagset_bt_iter:tags <- $x9
	.loc	106 268 23                      // kernel/include/linux/sbitmap.h:268:23
	lsl	w10, w23, w10
	.loc	106 268 37 is_stmt 0            // kernel/include/linux/sbitmap.h:268:37
	add	w10, w10, w22
.Ltmp43:
	//DEBUG_VALUE: ufs_tagset_bt_iter:iter_data <- $x20
	//DEBUG_VALUE: ufs_tagset_bt_iter:data <- $x20
	//DEBUG_VALUE: ufs_tagset_bt_iter:bitmap <- $x19
	//DEBUG_VALUE: ufs_tagset_bt_iter:bitnr <- $w10
	//DEBUG_VALUE: ufs_tagset_bt_iter:hctx <- $x0
	//DEBUG_VALUE: ufs_tagset_bt_iter:tags <- $x9
	//DEBUG_VALUE: ufs_tagset_bt_iter:rq <- 0
	.loc	2 50 6 is_stmt 1                // kernel/platform_source/basicplatform/block/mas_blk_mq_tag.c:50:6
	cbz	w8, .LBB1_9
.Ltmp44:
// %bb.8:                               //   in Loop: Header=BB1_6 Depth=2
	//DEBUG_VALUE: ufs_tagset_bt_iter:data <- $x20
	//DEBUG_VALUE: ufs_tagset_bt_iter:iter_data <- $x20
	//DEBUG_VALUE: ufs_tagset_bt_for_each:iter_data <- $x20
	//DEBUG_VALUE: ufs_tagset_bt_iter:bitmap <- $x19
	//DEBUG_VALUE: __sbitmap_for_each_set:sb <- $x19
	//DEBUG_VALUE: sbitmap_for_each_set:sb <- $x19
	//DEBUG_VALUE: ufs_tagset_bt_for_each:bt <- $x19
	//DEBUG_VALUE: ufs_tagset_bt_iter:tags <- $x9
	//DEBUG_VALUE: ufs_tagset_bt_iter:hctx <- $x0
	//DEBUG_VALUE: depth <- $w26
	//DEBUG_VALUE: __sbitmap_for_each_set:index <- $w23
	//DEBUG_VALUE: __sbitmap_for_each_set:nr <- $w22
	//DEBUG_VALUE: ufs_tagset_bt_iter:bitnr <- $w10
	//DEBUG_VALUE: word <- [DW_OP_plus_uconst 8, DW_OP_deref] $sp
	//DEBUG_VALUE: ufs_tagset_bt_iter:rq <- 0
	//DEBUG_VALUE: __sbitmap_for_each_set:start <- 0
	.loc	2 51 18                         // kernel/platform_source/basicplatform/block/mas_blk_mq_tag.c:51:18
	ldr	w11, [x9, #16]
	.loc	2 51 9 is_stmt 0                // kernel/platform_source/basicplatform/block/mas_blk_mq_tag.c:51:9
	add	w10, w11, w10
.Ltmp45:
	//DEBUG_VALUE: ufs_tagset_bt_iter:bitnr <- $w10
.LBB1_9:                                //   in Loop: Header=BB1_6 Depth=2
	//DEBUG_VALUE: ufs_tagset_bt_iter:data <- $x20
	//DEBUG_VALUE: ufs_tagset_bt_iter:iter_data <- $x20
	//DEBUG_VALUE: ufs_tagset_bt_for_each:iter_data <- $x20
	//DEBUG_VALUE: ufs_tagset_bt_iter:bitmap <- $x19
	//DEBUG_VALUE: __sbitmap_for_each_set:sb <- $x19
	//DEBUG_VALUE: sbitmap_for_each_set:sb <- $x19
	//DEBUG_VALUE: ufs_tagset_bt_for_each:bt <- $x19
	//DEBUG_VALUE: ufs_tagset_bt_iter:tags <- $x9
	//DEBUG_VALUE: ufs_tagset_bt_iter:hctx <- $x0
	//DEBUG_VALUE: depth <- $w26
	//DEBUG_VALUE: __sbitmap_for_each_set:index <- $w23
	//DEBUG_VALUE: __sbitmap_for_each_set:nr <- $w22
	//DEBUG_VALUE: ufs_tagset_bt_iter:bitnr <- $w10
	//DEBUG_VALUE: word <- [DW_OP_plus_uconst 8, DW_OP_deref] $sp
	//DEBUG_VALUE: ufs_tagset_bt_iter:rq <- 0
	//DEBUG_VALUE: __sbitmap_for_each_set:start <- 0
	//DEBUG_VALUE: ufs_tagset_bt_iter:bitnr <- $w10
	.loc	2 52 17 is_stmt 1               // kernel/platform_source/basicplatform/block/mas_blk_mq_tag.c:52:17
	ldrb	w11, [x20, #25]
.Ltmp46:
	.loc	2 52 6 is_stmt 0                // kernel/platform_source/basicplatform/block/mas_blk_mq_tag.c:52:6
	cbz	w11, .LBB1_11
.Ltmp47:
// %bb.10:                              //   in Loop: Header=BB1_6 Depth=2
	//DEBUG_VALUE: ufs_tagset_bt_iter:data <- $x20
	//DEBUG_VALUE: ufs_tagset_bt_iter:iter_data <- $x20
	//DEBUG_VALUE: ufs_tagset_bt_for_each:iter_data <- $x20
	//DEBUG_VALUE: ufs_tagset_bt_iter:bitmap <- $x19
	//DEBUG_VALUE: __sbitmap_for_each_set:sb <- $x19
	//DEBUG_VALUE: sbitmap_for_each_set:sb <- $x19
	//DEBUG_VALUE: ufs_tagset_bt_for_each:bt <- $x19
	//DEBUG_VALUE: ufs_tagset_bt_iter:tags <- $x9
	//DEBUG_VALUE: ufs_tagset_bt_iter:hctx <- $x0
	//DEBUG_VALUE: depth <- $w26
	//DEBUG_VALUE: __sbitmap_for_each_set:index <- $w23
	//DEBUG_VALUE: __sbitmap_for_each_set:nr <- $w22
	//DEBUG_VALUE: ufs_tagset_bt_iter:bitnr <- $w10
	//DEBUG_VALUE: word <- [DW_OP_plus_uconst 8, DW_OP_deref] $sp
	//DEBUG_VALUE: ufs_tagset_bt_iter:rq <- 0
	//DEBUG_VALUE: __sbitmap_for_each_set:start <- 0
	.loc	2 53 18 is_stmt 1               // kernel/platform_source/basicplatform/block/mas_blk_mq_tag.c:53:18
	ldr	w11, [x9, #20]
	.loc	2 53 9 is_stmt 0                // kernel/platform_source/basicplatform/block/mas_blk_mq_tag.c:53:9
	add	w10, w11, w10
.Ltmp48:
	//DEBUG_VALUE: ufs_tagset_bt_iter:bitnr <- $w10
.LBB1_11:                               //   in Loop: Header=BB1_6 Depth=2
	//DEBUG_VALUE: ufs_tagset_bt_iter:data <- $x20
	//DEBUG_VALUE: ufs_tagset_bt_iter:iter_data <- $x20
	//DEBUG_VALUE: ufs_tagset_bt_for_each:iter_data <- $x20
	//DEBUG_VALUE: ufs_tagset_bt_iter:bitmap <- $x19
	//DEBUG_VALUE: __sbitmap_for_each_set:sb <- $x19
	//DEBUG_VALUE: sbitmap_for_each_set:sb <- $x19
	//DEBUG_VALUE: ufs_tagset_bt_for_each:bt <- $x19
	//DEBUG_VALUE: ufs_tagset_bt_iter:tags <- $x9
	//DEBUG_VALUE: ufs_tagset_bt_iter:hctx <- $x0
	//DEBUG_VALUE: depth <- $w26
	//DEBUG_VALUE: __sbitmap_for_each_set:index <- $w23
	//DEBUG_VALUE: __sbitmap_for_each_set:nr <- $w22
	//DEBUG_VALUE: ufs_tagset_bt_iter:bitnr <- $w10
	//DEBUG_VALUE: word <- [DW_OP_plus_uconst 8, DW_OP_deref] $sp
	//DEBUG_VALUE: ufs_tagset_bt_iter:rq <- 0
	//DEBUG_VALUE: __sbitmap_for_each_set:start <- 0
	//DEBUG_VALUE: ufs_tagset_bt_iter:bitnr <- $w10
	.loc	2 55 13 is_stmt 1               // kernel/platform_source/basicplatform/block/mas_blk_mq_tag.c:55:13
	ldr	x9, [x9, #248]
.Ltmp49:
	.loc	2 55 7 is_stmt 0                // kernel/platform_source/basicplatform/block/mas_blk_mq_tag.c:55:7
	ldr	x1, [x9, w10, uxtw #3]
.Ltmp50:
	//DEBUG_VALUE: ufs_tagset_bt_iter:rq <- $x1
	.loc	2 61 9 is_stmt 1                // kernel/platform_source/basicplatform/block/mas_blk_mq_tag.c:61:9
	cbz	x1, .LBB1_5
.Ltmp51:
// %bb.12:                              //   in Loop: Header=BB1_6 Depth=2
	//DEBUG_VALUE: ufs_tagset_bt_iter:data <- $x20
	//DEBUG_VALUE: ufs_tagset_bt_iter:iter_data <- $x20
	//DEBUG_VALUE: ufs_tagset_bt_for_each:iter_data <- $x20
	//DEBUG_VALUE: ufs_tagset_bt_iter:bitmap <- $x19
	//DEBUG_VALUE: __sbitmap_for_each_set:sb <- $x19
	//DEBUG_VALUE: sbitmap_for_each_set:sb <- $x19
	//DEBUG_VALUE: ufs_tagset_bt_for_each:bt <- $x19
	//DEBUG_VALUE: ufs_tagset_bt_iter:rq <- $x1
	//DEBUG_VALUE: ufs_tagset_bt_iter:hctx <- $x0
	//DEBUG_VALUE: depth <- $w26
	//DEBUG_VALUE: __sbitmap_for_each_set:index <- $w23
	//DEBUG_VALUE: __sbitmap_for_each_set:nr <- $w22
	//DEBUG_VALUE: ufs_tagset_bt_iter:bitnr <- $w10
	//DEBUG_VALUE: word <- [DW_OP_plus_uconst 8, DW_OP_deref] $sp
	//DEBUG_VALUE: __sbitmap_for_each_set:start <- 0
	.loc	2 61 16 is_stmt 0               // kernel/platform_source/basicplatform/block/mas_blk_mq_tag.c:61:16
	ldr	x9, [x1]
	.loc	2 61 27                         // kernel/platform_source/basicplatform/block/mas_blk_mq_tag.c:61:27
	ldr	x10, [x0, #192]
.Ltmp52:
	.loc	2 61 33                         // kernel/platform_source/basicplatform/block/mas_blk_mq_tag.c:61:33
	cmp	x9, x10
	b.ne	.LBB1_5
.Ltmp53:
// %bb.13:                              //   in Loop: Header=BB1_6 Depth=2
	//DEBUG_VALUE: ufs_tagset_bt_iter:data <- $x20
	//DEBUG_VALUE: ufs_tagset_bt_iter:iter_data <- $x20
	//DEBUG_VALUE: ufs_tagset_bt_for_each:iter_data <- $x20
	//DEBUG_VALUE: ufs_tagset_bt_iter:bitmap <- $x19
	//DEBUG_VALUE: __sbitmap_for_each_set:sb <- $x19
	//DEBUG_VALUE: sbitmap_for_each_set:sb <- $x19
	//DEBUG_VALUE: ufs_tagset_bt_for_each:bt <- $x19
	//DEBUG_VALUE: ufs_tagset_bt_iter:rq <- $x1
	//DEBUG_VALUE: ufs_tagset_bt_iter:hctx <- $x0
	//DEBUG_VALUE: depth <- $w26
	//DEBUG_VALUE: __sbitmap_for_each_set:index <- $w23
	//DEBUG_VALUE: __sbitmap_for_each_set:nr <- $w22
	//DEBUG_VALUE: word <- [DW_OP_plus_uconst 8, DW_OP_deref] $sp
	//DEBUG_VALUE: __sbitmap_for_each_set:start <- 0
	.loc	2 61 47                         // kernel/platform_source/basicplatform/block/mas_blk_mq_tag.c:61:47
	ldr	x9, [x20, #8]
.Ltmp54:
	.loc	2 61 6                          // kernel/platform_source/basicplatform/block/mas_blk_mq_tag.c:61:6
	cbz	x9, .LBB1_5
.Ltmp55:
// %bb.14:                              //   in Loop: Header=BB1_6 Depth=2
	//DEBUG_VALUE: ufs_tagset_bt_iter:data <- $x20
	//DEBUG_VALUE: ufs_tagset_bt_iter:iter_data <- $x20
	//DEBUG_VALUE: ufs_tagset_bt_for_each:iter_data <- $x20
	//DEBUG_VALUE: ufs_tagset_bt_iter:bitmap <- $x19
	//DEBUG_VALUE: __sbitmap_for_each_set:sb <- $x19
	//DEBUG_VALUE: sbitmap_for_each_set:sb <- $x19
	//DEBUG_VALUE: ufs_tagset_bt_for_each:bt <- $x19
	//DEBUG_VALUE: ufs_tagset_bt_iter:rq <- $x1
	//DEBUG_VALUE: ufs_tagset_bt_iter:hctx <- $x0
	//DEBUG_VALUE: depth <- $w26
	//DEBUG_VALUE: __sbitmap_for_each_set:index <- $w23
	//DEBUG_VALUE: __sbitmap_for_each_set:nr <- $w22
	//DEBUG_VALUE: word <- [DW_OP_plus_uconst 8, DW_OP_deref] $sp
	//DEBUG_VALUE: __sbitmap_for_each_set:start <- 0
	.loc	2 62 38 is_stmt 1               // kernel/platform_source/basicplatform/block/mas_blk_mq_tag.c:62:38
	ldr	x2, [x20, #16]
	.loc	2 62 55 is_stmt 0               // kernel/platform_source/basicplatform/block/mas_blk_mq_tag.c:62:55
	cmp	w8, #0                          // =0
	cset	w3, ne
	.loc	2 62 3                          // kernel/platform_source/basicplatform/block/mas_blk_mq_tag.c:62:3
	blr	x9
.Ltmp56:
	.loc	2 0 3                           // kernel/platform_source/basicplatform/block/mas_blk_mq_tag.c:0:3
	b	.LBB1_5
.Ltmp57:
.LBB1_15:
	.loc	2 71 1 is_stmt 1                // kernel/platform_source/basicplatform/block/mas_blk_mq_tag.c:71:1
	ldp	x20, x19, [sp, #80]             // 16-byte Folded Reload
	ldp	x22, x21, [sp, #64]             // 16-byte Folded Reload
	ldp	x24, x23, [sp, #48]             // 16-byte Folded Reload
	ldp	x26, x25, [sp, #32]             // 16-byte Folded Reload
	ldp	x29, x30, [sp, #16]             // 16-byte Folded Reload
	add	sp, sp, #96                     // =96
	ret
.Ltmp58:
.Lfunc_end1:
	.size	ufs_tagset_bt_for_each, .Lfunc_end1-ufs_tagset_bt_for_each
	.cfi_endproc
	.file	149 "/mnt/disk/jenkins/ci/workspace/chipset_pipeline_release/opensource/component_code/vendor/huawei/extra/build/build_script/kirin_kernel_release" "kernel/include/asm-generic/bitops/find.h"
                                        // -- End function
	.globl	ufs_tagset_bt_get               // -- Begin function ufs_tagset_bt_get
	.p2align	2
	.type	ufs_tagset_bt_get,@function
ufs_tagset_bt_get:                      // @ufs_tagset_bt_get
.Lfunc_begin2:
	.loc	2 295 0                         // kernel/platform_source/basicplatform/block/mas_blk_mq_tag.c:295:0
	.cfi_startproc
// %bb.0:
	//DEBUG_VALUE: ufs_tagset_bt_get:data <- $x0
	//DEBUG_VALUE: ufs_tagset_bt_get:bt <- $x1
	//DEBUG_VALUE: ufs_tagset_bt_get:hctx <- $x2
	//DEBUG_VALUE: ufs_tagset_bt_get:hctx <- $x2
	//DEBUG_VALUE: ufs_tagset_bt_get:bt <- $x1
	//DEBUG_VALUE: ufs_tagset_bt_get:data <- $x0
	sub	sp, sp, #160                    // =160
	stp	x29, x30, [sp, #64]             // 16-byte Folded Spill
	stp	x28, x27, [sp, #80]             // 16-byte Folded Spill
	stp	x26, x25, [sp, #96]             // 16-byte Folded Spill
	stp	x24, x23, [sp, #112]            // 16-byte Folded Spill
	stp	x22, x21, [sp, #128]            // 16-byte Folded Spill
	stp	x20, x19, [sp, #144]            // 16-byte Folded Spill
	add	x29, sp, #64                    // =64
	.cfi_def_cfa w29, 96
	.cfi_offset w19, -8
	.cfi_offset w20, -16
	.cfi_offset w21, -24
	.cfi_offset w22, -32
	.cfi_offset w23, -40
	.cfi_offset w24, -48
	.cfi_offset w25, -56
	.cfi_offset w26, -64
	.cfi_offset w27, -72
	.cfi_offset w28, -80
	.cfi_offset w30, -88
	.cfi_offset w29, -96
.Ltmp59:
	.loc	2 298 6 prologue_end            // kernel/platform_source/basicplatform/block/mas_blk_mq_tag.c:298:6
	cbz	x2, .LBB2_39
.Ltmp60:
// %bb.1:
	//DEBUG_VALUE: ufs_tagset_bt_get:hctx <- $x2
	//DEBUG_VALUE: ufs_tagset_bt_get:bt <- $x1
	//DEBUG_VALUE: ufs_tagset_bt_get:data <- $x0
	.loc	2 137 16                        // kernel/platform_source/basicplatform/block/mas_blk_mq_tag.c:137:16
	ldr	w8, [x0, #40]
	mov	w24, #4096
	movk	w24, #32, lsl #16
.Ltmp61:
	//DEBUG_VALUE: ufs_sbitmap_is_fg:data <- $x19
	//DEBUG_VALUE: ufs_sbitmap_queue_get:bt <- $x20
	//DEBUG_VALUE: ufs_sbitmap_queue_get:data <- $x19
	.loc	2 0 16 is_stmt 0                // kernel/platform_source/basicplatform/block/mas_blk_mq_tag.c:0:16
	mov	x21, x2
.Ltmp62:
	//DEBUG_VALUE: ufs_tagset_bt_get:hctx <- $x21
	//DEBUG_VALUE: ufs_tagset_bt_get:hctx <- $x21
	mov	x20, x1
.Ltmp63:
	//DEBUG_VALUE: ufs_tagset_bt_get:bt <- $x20
	//DEBUG_VALUE: ufs_tagset_bt_get:bt <- $x20
	mov	x19, x0
.Ltmp64:
	//DEBUG_VALUE: ufs_tagset_bt_get:data <- $x19
	//DEBUG_VALUE: ufs_tagset_bt_get:data <- $x19
	.loc	2 137 26                        // kernel/platform_source/basicplatform/block/mas_blk_mq_tag.c:137:26
	tst	w8, w24
	.loc	2 137 41                        // kernel/platform_source/basicplatform/block/mas_blk_mq_tag.c:137:41
	b.eq	.LBB2_6
.Ltmp65:
// %bb.2:
	//DEBUG_VALUE: ufs_tagset_bt_get:hctx <- $x21
	//DEBUG_VALUE: ufs_tagset_bt_get:bt <- $x20
	//DEBUG_VALUE: ufs_tagset_bt_get:data <- $x19
	.loc	2 156 6 is_stmt 1               // kernel/platform_source/basicplatform/block/mas_blk_mq_tag.c:156:6
	ldrb	w8, [x19, #16]
	tbnz	w8, #1, .LBB2_6
.Ltmp66:
// %bb.3:
	//DEBUG_VALUE: ufs_tagset_bt_get:hctx <- $x21
	//DEBUG_VALUE: ufs_tagset_bt_get:bt <- $x20
	//DEBUG_VALUE: ufs_tagset_bt_get:data <- $x19
	mov	x0, x19
	bl	ufs_mq_vip_tag_wait_cnt
.Ltmp67:
	cbz	w0, .LBB2_6
.Ltmp68:
// %bb.4:
	//DEBUG_VALUE: ufs_tagset_bt_get:hctx <- $x21
	//DEBUG_VALUE: ufs_tagset_bt_get:bt <- $x20
	//DEBUG_VALUE: ufs_tagset_bt_get:data <- $x19
	//DEBUG_VALUE: ufs_sbitmap_fg_starved:data <- $x19
	.loc	2 146 13                        // kernel/platform_source/basicplatform/block/mas_blk_mq_tag.c:146:13
	ldr	x8, [x19, #24]
.Ltmp69:
	.loc	2 146 6 is_stmt 0               // kernel/platform_source/basicplatform/block/mas_blk_mq_tag.c:146:6
	cbz	x8, .LBB2_7
.Ltmp70:
// %bb.5:
	//DEBUG_VALUE: ufs_tagset_bt_get:hctx <- $x21
	//DEBUG_VALUE: ufs_tagset_bt_get:bt <- $x20
	//DEBUG_VALUE: ufs_sbitmap_fg_starved:data <- $x19
	//DEBUG_VALUE: ufs_tagset_bt_get:data <- $x19
	.loc	2 149 21 is_stmt 1              // kernel/platform_source/basicplatform/block/mas_blk_mq_tag.c:149:21
	bl	ktime_get
.Ltmp71:
	//DEBUG_VALUE: ktime_compare:cmp1 <- $x0
	//DEBUG_VALUE: ktime_after:cmp1 <- $x0
	.loc	2 150 22                        // kernel/platform_source/basicplatform/block/mas_blk_mq_tag.c:150:22
	ldr	x8, [x19, #24]
	mov	w9, #25856
	movk	w9, #7629, lsl #16
.Ltmp72:
	//DEBUG_VALUE: ktime_add_ms:kt <- $x8
	//DEBUG_VALUE: ktime_add_ms:msec <- 500
	.loc	36 186 9                        // kernel/include/linux/ktime.h:186:9
	add	x8, x8, x9
.Ltmp73:
	//DEBUG_VALUE: ktime_compare:cmp2 <- $x8
	//DEBUG_VALUE: ktime_after:cmp2 <- $x8
	.loc	2 156 6                         // kernel/platform_source/basicplatform/block/mas_blk_mq_tag.c:156:6
	cmp	x0, x8
	b.le	.LBB2_7
.Ltmp74:
.LBB2_6:
	//DEBUG_VALUE: ufs_tagset_bt_get:hctx <- $x21
	//DEBUG_VALUE: ufs_tagset_bt_get:bt <- $x20
	//DEBUG_VALUE: ufs_tagset_bt_get:data <- $x19
	.loc	2 168 9                         // kernel/platform_source/basicplatform/block/mas_blk_mq_tag.c:168:9
	mov	x0, x20
	bl	__sbitmap_queue_get
.Ltmp75:
	mov	w23, w0
.Ltmp76:
	//DEBUG_VALUE: ufs_tagset_bt_get:tag <- $w23
	.loc	2 306 6                         // kernel/platform_source/basicplatform/block/mas_blk_mq_tag.c:306:6
	cmn	w0, #1                          // =1
	b.ne	.LBB2_40
.Ltmp77:
.LBB2_7:
	//DEBUG_VALUE: ufs_tagset_bt_get:hctx <- $x21
	//DEBUG_VALUE: ufs_tagset_bt_get:bt <- $x20
	//DEBUG_VALUE: ufs_tagset_bt_get:data <- $x19
	//DEBUG_VALUE: ufs_tagset_bt_get_slowpath:data <- $x19
	//DEBUG_VALUE: ufs_tagset_bt_get_slowpath:bt <- $x20
	//DEBUG_VALUE: ufs_tagset_bt_get_slowpath:hctx <- $x21
	//DEBUG_VALUE: ufs_tagset_bt_get_slowpath:bs <- 0
	.loc	2 200 2                         // kernel/platform_source/basicplatform/block/mas_blk_mq_tag.c:200:2
	adrp	x9, autoremove_wake_function
.Ltmp78:
	.file	150 "/mnt/disk/jenkins/ci/workspace/chipset_pipeline_release/opensource/component_code/vendor/huawei/extra/build/build_script/kirin_kernel_release" "kernel/arch/arm64/include/asm/current.h"
	.loc	150 19 2                        // kernel/arch/arm64/include/asm/current.h:19:2
	//APP
	mrs	x8, SP_EL0
	//NO_APP
.Ltmp79:
	//DEBUG_VALUE: get_current:sp_el0 <- $x8
	.loc	2 200 2                         // kernel/platform_source/basicplatform/block/mas_blk_mq_tag.c:200:2
	add	x9, x9, :lo12:autoremove_wake_function
	add	x10, sp, #16                    // =16
	stp	x8, x9, [sp, #32]
	add	x8, x10, #32                    // =32
	str	wzr, [sp, #24]
	stp	x8, x8, [sp, #48]
	.loc	2 209 16                        // kernel/platform_source/basicplatform/block/mas_blk_mq_tag.c:209:16
	ldr	w26, [x19, #40]
.Ltmp80:
	//DEBUG_VALUE: ufs_tagset_bt_get_slowpath:flags <- $w26
	.loc	2 210 20                        // kernel/platform_source/basicplatform/block/mas_blk_mq_tag.c:210:20
	ldr	x9, [x19, #16]
.Ltmp81:
	//DEBUG_VALUE: ufs_tagset_bt_get_slowpath:mas_flags <- $x9
	.loc	2 137 16                        // kernel/platform_source/basicplatform/block/mas_blk_mq_tag.c:137:16
	mov	w8, w26
.Ltmp82:
	.loc	2 200 2                         // kernel/platform_source/basicplatform/block/mas_blk_mq_tag.c:200:2
	stp	x9, xzr, [sp, #8]               // 8-byte Folded Spill
.Ltmp83:
	//DEBUG_VALUE: ufs_tagset_bt_get_slowpath:mas_flags <- [DW_OP_plus_uconst 8] [$sp+0]
	.loc	2 215 6                         // kernel/platform_source/basicplatform/block/mas_blk_mq_tag.c:215:6
	tbz	w9, #1, .LBB2_9
.Ltmp84:
// %bb.8:
	//DEBUG_VALUE: ufs_tagset_bt_get_slowpath:hctx <- $x21
	//DEBUG_VALUE: ufs_tagset_bt_get:hctx <- $x21
	//DEBUG_VALUE: ufs_tagset_bt_get_slowpath:bt <- $x20
	//DEBUG_VALUE: ufs_tagset_bt_get:bt <- $x20
	//DEBUG_VALUE: ufs_tagset_bt_get_slowpath:data <- $x19
	//DEBUG_VALUE: ufs_tagset_bt_get:data <- $x19
	//DEBUG_VALUE: ufs_tagset_bt_get_slowpath:flags <- $w26
	//DEBUG_VALUE: ufs_tagset_bt_get_slowpath:mas_flags <- [DW_OP_plus_uconst 8] [$sp+0]
	//DEBUG_VALUE: ufs_tagset_bt_get_slowpath:bs <- 0
	.loc	2 216 3                         // kernel/platform_source/basicplatform/block/mas_blk_mq_tag.c:216:3
	mov	x0, x19
	bl	ufs_mq_inc_vip_wait_cnt
.Ltmp85:
	.loc	2 137 16                        // kernel/platform_source/basicplatform/block/mas_blk_mq_tag.c:137:16
	ldr	w8, [x19, #40]
.Ltmp86:
.LBB2_9:
	//DEBUG_VALUE: ufs_tagset_bt_get_slowpath:hctx <- $x21
	//DEBUG_VALUE: ufs_tagset_bt_get:hctx <- $x21
	//DEBUG_VALUE: ufs_tagset_bt_get_slowpath:bt <- $x20
	//DEBUG_VALUE: ufs_tagset_bt_get:bt <- $x20
	//DEBUG_VALUE: ufs_tagset_bt_get_slowpath:data <- $x19
	//DEBUG_VALUE: ufs_tagset_bt_get:data <- $x19
	//DEBUG_VALUE: ufs_tagset_bt_get_slowpath:flags <- $w26
	//DEBUG_VALUE: ufs_tagset_bt_get_slowpath:mas_flags <- [DW_OP_plus_uconst 8] [$sp+0]
	//DEBUG_VALUE: ufs_tagset_bt_get_slowpath:bs <- 0
	//DEBUG_VALUE: ufs_sbitmap_is_fg:data <- $x19
	.loc	2 137 26 is_stmt 0              // kernel/platform_source/basicplatform/block/mas_blk_mq_tag.c:137:26
	tst	w8, w24
	.loc	2 137 41                        // kernel/platform_source/basicplatform/block/mas_blk_mq_tag.c:137:41
	b.eq	.LBB2_12
.Ltmp87:
// %bb.10:
	//DEBUG_VALUE: ufs_tagset_bt_get_slowpath:hctx <- $x21
	//DEBUG_VALUE: ufs_tagset_bt_get:hctx <- $x21
	//DEBUG_VALUE: ufs_tagset_bt_get_slowpath:bt <- $x20
	//DEBUG_VALUE: ufs_tagset_bt_get:bt <- $x20
	//DEBUG_VALUE: ufs_tagset_bt_get_slowpath:data <- $x19
	//DEBUG_VALUE: ufs_tagset_bt_get:data <- $x19
	//DEBUG_VALUE: ufs_tagset_bt_get_slowpath:flags <- $w26
	//DEBUG_VALUE: ufs_tagset_bt_get_slowpath:mas_flags <- [DW_OP_plus_uconst 8] [$sp+0]
	//DEBUG_VALUE: ufs_tagset_bt_get_slowpath:bs <- 0
	.loc	2 218 6 is_stmt 1               // kernel/platform_source/basicplatform/block/mas_blk_mq_tag.c:218:6
	ldrb	w8, [x19, #16]
	tbnz	w8, #1, .LBB2_12
.Ltmp88:
// %bb.11:
	//DEBUG_VALUE: ufs_tagset_bt_get_slowpath:hctx <- $x21
	//DEBUG_VALUE: ufs_tagset_bt_get:hctx <- $x21
	//DEBUG_VALUE: ufs_tagset_bt_get_slowpath:bt <- $x20
	//DEBUG_VALUE: ufs_tagset_bt_get:bt <- $x20
	//DEBUG_VALUE: ufs_tagset_bt_get_slowpath:data <- $x19
	//DEBUG_VALUE: ufs_tagset_bt_get:data <- $x19
	//DEBUG_VALUE: ufs_tagset_bt_get_slowpath:flags <- $w26
	//DEBUG_VALUE: ufs_tagset_bt_get_slowpath:mas_flags <- [DW_OP_plus_uconst 8] [$sp+0]
	//DEBUG_VALUE: ufs_tagset_bt_get_slowpath:bs <- 0
	.loc	2 219 26                        // kernel/platform_source/basicplatform/block/mas_blk_mq_tag.c:219:26
	bl	ktime_get
.Ltmp89:
	.loc	2 219 24 is_stmt 0              // kernel/platform_source/basicplatform/block/mas_blk_mq_tag.c:219:24
	str	x0, [x19, #24]
.Ltmp90:
.LBB2_12:
	//DEBUG_VALUE: ufs_tagset_bt_get_slowpath:hctx <- $x21
	//DEBUG_VALUE: ufs_tagset_bt_get:hctx <- $x21
	//DEBUG_VALUE: ufs_tagset_bt_get_slowpath:bt <- $x20
	//DEBUG_VALUE: ufs_tagset_bt_get:bt <- $x20
	//DEBUG_VALUE: ufs_tagset_bt_get_slowpath:data <- $x19
	//DEBUG_VALUE: ufs_tagset_bt_get:data <- $x19
	//DEBUG_VALUE: ufs_tagset_bt_get_slowpath:flags <- $w26
	//DEBUG_VALUE: ufs_tagset_bt_get_slowpath:mas_flags <- [DW_OP_plus_uconst 8] [$sp+0]
	//DEBUG_VALUE: ufs_tagset_bt_get_slowpath:bs <- 0
	.loc	2 221 12 is_stmt 1              // kernel/platform_source/basicplatform/block/mas_blk_mq_tag.c:221:12
	ldr	x22, [x20, #40]
.Ltmp91:
	//DEBUG_VALUE: ufs_tagset_bt_get_slowpath:bs <- $x22
	.loc	2 0 12 is_stmt 0                // kernel/platform_source/basicplatform/block/mas_blk_mq_tag.c:0:12
	tst	w26, #0xff
	and	w9, w26, w24
	mov	w8, #2
	str	w9, [sp, #4]                    // 4-byte Folded Spill
	cset	w9, eq
	tst	w26, #0x4000000
	adrp	x25, cpu_number
	adrp	x27, __per_cpu_offset
	csel	x28, x9, x8, eq
	add	x25, x25, :lo12:cpu_number
	add	x27, x27, :lo12:__per_cpu_offset
.Ltmp92:
.LBB2_13:                               // =>This Inner Loop Header: Depth=1
	//DEBUG_VALUE: ufs_tagset_bt_get_slowpath:bs <- $x22
	//DEBUG_VALUE: ufs_tagset_bt_get_slowpath:hctx <- $x21
	//DEBUG_VALUE: ufs_tagset_bt_get_slowpath:bt <- $x20
	//DEBUG_VALUE: ufs_tagset_bt_get_slowpath:data <- $x19
	//DEBUG_VALUE: ufs_tagset_bt_get:data <- $x19
	//DEBUG_VALUE: ufs_tagset_bt_get_slowpath:flags <- $w26
	//DEBUG_VALUE: ufs_tagset_bt_get_slowpath:mas_flags <- [DW_OP_plus_uconst 8] [$sp+0]
	//DEBUG_VALUE: ufs_tagset_bt_get_slowpath:bt <- $x20
	//DEBUG_VALUE: ufs_tagset_bt_get_slowpath:hctx <- $x21
	.loc	2 224 3 is_stmt 1               // kernel/platform_source/basicplatform/block/mas_blk_mq_tag.c:224:3
	add	x2, sp, #16                     // =16
	mov	w3, #2
	mov	x0, x20
	mov	x1, x22
	bl	sbitmap_prepare_to_wait
.Ltmp93:
	//DEBUG_VALUE: ufs_sbitmap_is_fg:data <- $x19
	//DEBUG_VALUE: ufs_sbitmap_queue_get:bt <- $x20
	//DEBUG_VALUE: ufs_sbitmap_queue_get:data <- $x19
	//DEBUG_VALUE: ufs_try_get_tag:hctx <- $x21
	//DEBUG_VALUE: ufs_try_get_tag:bt <- $x20
	//DEBUG_VALUE: ufs_try_get_tag:data <- $x19
	.loc	2 137 16                        // kernel/platform_source/basicplatform/block/mas_blk_mq_tag.c:137:16
	ldr	w8, [x19, #40]
	.loc	2 137 26 is_stmt 0              // kernel/platform_source/basicplatform/block/mas_blk_mq_tag.c:137:26
	tst	w8, w24
	.loc	2 137 41                        // kernel/platform_source/basicplatform/block/mas_blk_mq_tag.c:137:41
	b.eq	.LBB2_18
.Ltmp94:
// %bb.14:                              //   in Loop: Header=BB2_13 Depth=1
	//DEBUG_VALUE: ufs_tagset_bt_get_slowpath:bs <- $x22
	//DEBUG_VALUE: ufs_try_get_tag:hctx <- $x21
	//DEBUG_VALUE: ufs_tagset_bt_get_slowpath:hctx <- $x21
	//DEBUG_VALUE: ufs_try_get_tag:bt <- $x20
	//DEBUG_VALUE: ufs_sbitmap_queue_get:bt <- $x20
	//DEBUG_VALUE: ufs_tagset_bt_get_slowpath:bt <- $x20
	//DEBUG_VALUE: ufs_try_get_tag:data <- $x19
	//DEBUG_VALUE: ufs_sbitmap_queue_get:data <- $x19
	//DEBUG_VALUE: ufs_tagset_bt_get_slowpath:data <- $x19
	//DEBUG_VALUE: ufs_tagset_bt_get:data <- $x19
	//DEBUG_VALUE: ufs_tagset_bt_get_slowpath:flags <- $w26
	//DEBUG_VALUE: ufs_tagset_bt_get_slowpath:mas_flags <- [DW_OP_plus_uconst 8] [$sp+0]
	.loc	2 156 6 is_stmt 1               // kernel/platform_source/basicplatform/block/mas_blk_mq_tag.c:156:6
	ldrb	w8, [x19, #16]
	tbnz	w8, #1, .LBB2_18
.Ltmp95:
// %bb.15:                              //   in Loop: Header=BB2_13 Depth=1
	//DEBUG_VALUE: ufs_tagset_bt_get_slowpath:bs <- $x22
	//DEBUG_VALUE: ufs_try_get_tag:hctx <- $x21
	//DEBUG_VALUE: ufs_tagset_bt_get_slowpath:hctx <- $x21
	//DEBUG_VALUE: ufs_try_get_tag:bt <- $x20
	//DEBUG_VALUE: ufs_sbitmap_queue_get:bt <- $x20
	//DEBUG_VALUE: ufs_tagset_bt_get_slowpath:bt <- $x20
	//DEBUG_VALUE: ufs_try_get_tag:data <- $x19
	//DEBUG_VALUE: ufs_sbitmap_queue_get:data <- $x19
	//DEBUG_VALUE: ufs_tagset_bt_get_slowpath:data <- $x19
	//DEBUG_VALUE: ufs_tagset_bt_get:data <- $x19
	//DEBUG_VALUE: ufs_tagset_bt_get_slowpath:flags <- $w26
	//DEBUG_VALUE: ufs_tagset_bt_get_slowpath:mas_flags <- [DW_OP_plus_uconst 8] [$sp+0]
	mov	x0, x19
	bl	ufs_mq_vip_tag_wait_cnt
.Ltmp96:
	cbz	w0, .LBB2_18
.Ltmp97:
// %bb.16:                              //   in Loop: Header=BB2_13 Depth=1
	//DEBUG_VALUE: ufs_tagset_bt_get_slowpath:bs <- $x22
	//DEBUG_VALUE: ufs_try_get_tag:hctx <- $x21
	//DEBUG_VALUE: ufs_tagset_bt_get_slowpath:hctx <- $x21
	//DEBUG_VALUE: ufs_try_get_tag:bt <- $x20
	//DEBUG_VALUE: ufs_sbitmap_queue_get:bt <- $x20
	//DEBUG_VALUE: ufs_tagset_bt_get_slowpath:bt <- $x20
	//DEBUG_VALUE: ufs_try_get_tag:data <- $x19
	//DEBUG_VALUE: ufs_sbitmap_queue_get:data <- $x19
	//DEBUG_VALUE: ufs_tagset_bt_get_slowpath:data <- $x19
	//DEBUG_VALUE: ufs_tagset_bt_get:data <- $x19
	//DEBUG_VALUE: ufs_tagset_bt_get_slowpath:flags <- $w26
	//DEBUG_VALUE: ufs_tagset_bt_get_slowpath:mas_flags <- [DW_OP_plus_uconst 8] [$sp+0]
	//DEBUG_VALUE: ufs_sbitmap_fg_starved:data <- $x19
	.loc	2 146 13                        // kernel/platform_source/basicplatform/block/mas_blk_mq_tag.c:146:13
	ldr	x8, [x19, #24]
.Ltmp98:
	.loc	2 146 6 is_stmt 0               // kernel/platform_source/basicplatform/block/mas_blk_mq_tag.c:146:6
	cbz	x8, .LBB2_19
.Ltmp99:
// %bb.17:                              //   in Loop: Header=BB2_13 Depth=1
	//DEBUG_VALUE: ufs_tagset_bt_get_slowpath:bs <- $x22
	//DEBUG_VALUE: ufs_try_get_tag:hctx <- $x21
	//DEBUG_VALUE: ufs_tagset_bt_get_slowpath:hctx <- $x21
	//DEBUG_VALUE: ufs_try_get_tag:bt <- $x20
	//DEBUG_VALUE: ufs_sbitmap_queue_get:bt <- $x20
	//DEBUG_VALUE: ufs_tagset_bt_get_slowpath:bt <- $x20
	//DEBUG_VALUE: ufs_sbitmap_fg_starved:data <- $x19
	//DEBUG_VALUE: ufs_try_get_tag:data <- $x19
	//DEBUG_VALUE: ufs_sbitmap_queue_get:data <- $x19
	//DEBUG_VALUE: ufs_tagset_bt_get_slowpath:data <- $x19
	//DEBUG_VALUE: ufs_tagset_bt_get:data <- $x19
	//DEBUG_VALUE: ufs_tagset_bt_get_slowpath:flags <- $w26
	//DEBUG_VALUE: ufs_tagset_bt_get_slowpath:mas_flags <- [DW_OP_plus_uconst 8] [$sp+0]
	.loc	2 149 21 is_stmt 1              // kernel/platform_source/basicplatform/block/mas_blk_mq_tag.c:149:21
	bl	ktime_get
.Ltmp100:
	//DEBUG_VALUE: ktime_compare:cmp1 <- $x0
	//DEBUG_VALUE: ktime_after:cmp1 <- $x0
	.loc	2 150 22                        // kernel/platform_source/basicplatform/block/mas_blk_mq_tag.c:150:22
	ldr	x8, [x19, #24]
.Ltmp101:
	.loc	36 186 9                        // kernel/include/linux/ktime.h:186:9
	mov	w9, #25856
	movk	w9, #7629, lsl #16
.Ltmp102:
	//DEBUG_VALUE: ktime_add_ms:kt <- $x8
	//DEBUG_VALUE: ktime_add_ms:msec <- 500
	add	x8, x8, x9
.Ltmp103:
	//DEBUG_VALUE: ktime_compare:cmp2 <- $x8
	//DEBUG_VALUE: ktime_after:cmp2 <- $x8
	.loc	2 156 6                         // kernel/platform_source/basicplatform/block/mas_blk_mq_tag.c:156:6
	cmp	x0, x8
	b.le	.LBB2_19
.Ltmp104:
.LBB2_18:                               //   in Loop: Header=BB2_13 Depth=1
	//DEBUG_VALUE: ufs_tagset_bt_get_slowpath:bs <- $x22
	//DEBUG_VALUE: ufs_try_get_tag:hctx <- $x21
	//DEBUG_VALUE: ufs_tagset_bt_get_slowpath:hctx <- $x21
	//DEBUG_VALUE: ufs_try_get_tag:bt <- $x20
	//DEBUG_VALUE: ufs_sbitmap_queue_get:bt <- $x20
	//DEBUG_VALUE: ufs_tagset_bt_get_slowpath:bt <- $x20
	//DEBUG_VALUE: ufs_try_get_tag:data <- $x19
	//DEBUG_VALUE: ufs_sbitmap_queue_get:data <- $x19
	//DEBUG_VALUE: ufs_tagset_bt_get_slowpath:data <- $x19
	//DEBUG_VALUE: ufs_tagset_bt_get:data <- $x19
	//DEBUG_VALUE: ufs_tagset_bt_get_slowpath:flags <- $w26
	//DEBUG_VALUE: ufs_tagset_bt_get_slowpath:mas_flags <- [DW_OP_plus_uconst 8] [$sp+0]
	.loc	2 168 9                         // kernel/platform_source/basicplatform/block/mas_blk_mq_tag.c:168:9
	mov	x0, x20
	bl	__sbitmap_queue_get
.Ltmp105:
	//DEBUG_VALUE: ufs_try_get_tag:tag <- $w0
	.loc	2 177 6                         // kernel/platform_source/basicplatform/block/mas_blk_mq_tag.c:177:6
	cmn	w0, #1                          // =1
	b.ne	.LBB2_41
.Ltmp106:
.LBB2_19:                               //   in Loop: Header=BB2_13 Depth=1
	//DEBUG_VALUE: ufs_tagset_bt_get_slowpath:bs <- $x22
	//DEBUG_VALUE: ufs_try_get_tag:hctx <- $x21
	//DEBUG_VALUE: ufs_tagset_bt_get_slowpath:hctx <- $x21
	//DEBUG_VALUE: ufs_try_get_tag:bt <- $x20
	//DEBUG_VALUE: ufs_tagset_bt_get_slowpath:bt <- $x20
	//DEBUG_VALUE: ufs_try_get_tag:data <- $x19
	//DEBUG_VALUE: ufs_tagset_bt_get_slowpath:data <- $x19
	//DEBUG_VALUE: ufs_tagset_bt_get:data <- $x19
	//DEBUG_VALUE: ufs_tagset_bt_get_slowpath:flags <- $w26
	//DEBUG_VALUE: ufs_tagset_bt_get_slowpath:mas_flags <- [DW_OP_plus_uconst 8] [$sp+0]
	.loc	2 185 2                         // kernel/platform_source/basicplatform/block/mas_blk_mq_tag.c:185:2
	mov	x0, x21
	mov	w1, wzr
	bl	blk_mq_run_hw_queue
.Ltmp107:
	//DEBUG_VALUE: ufs_sbitmap_is_fg:data <- $x19
	//DEBUG_VALUE: ufs_sbitmap_queue_get:bt <- $x20
	//DEBUG_VALUE: ufs_sbitmap_queue_get:data <- $x19
	.loc	2 137 16                        // kernel/platform_source/basicplatform/block/mas_blk_mq_tag.c:137:16
	ldr	w8, [x19, #40]
	.loc	2 137 26 is_stmt 0              // kernel/platform_source/basicplatform/block/mas_blk_mq_tag.c:137:26
	tst	w8, w24
	.loc	2 137 41                        // kernel/platform_source/basicplatform/block/mas_blk_mq_tag.c:137:41
	b.eq	.LBB2_24
.Ltmp108:
// %bb.20:                              //   in Loop: Header=BB2_13 Depth=1
	//DEBUG_VALUE: ufs_tagset_bt_get_slowpath:bs <- $x22
	//DEBUG_VALUE: ufs_try_get_tag:hctx <- $x21
	//DEBUG_VALUE: ufs_tagset_bt_get_slowpath:hctx <- $x21
	//DEBUG_VALUE: ufs_sbitmap_queue_get:bt <- $x20
	//DEBUG_VALUE: ufs_try_get_tag:bt <- $x20
	//DEBUG_VALUE: ufs_tagset_bt_get_slowpath:bt <- $x20
	//DEBUG_VALUE: ufs_sbitmap_queue_get:data <- $x19
	//DEBUG_VALUE: ufs_try_get_tag:data <- $x19
	//DEBUG_VALUE: ufs_tagset_bt_get_slowpath:data <- $x19
	//DEBUG_VALUE: ufs_tagset_bt_get:data <- $x19
	//DEBUG_VALUE: ufs_tagset_bt_get_slowpath:flags <- $w26
	//DEBUG_VALUE: ufs_tagset_bt_get_slowpath:mas_flags <- [DW_OP_plus_uconst 8] [$sp+0]
	.loc	2 156 6 is_stmt 1               // kernel/platform_source/basicplatform/block/mas_blk_mq_tag.c:156:6
	ldrb	w8, [x19, #16]
	tbnz	w8, #1, .LBB2_24
.Ltmp109:
// %bb.21:                              //   in Loop: Header=BB2_13 Depth=1
	//DEBUG_VALUE: ufs_tagset_bt_get_slowpath:bs <- $x22
	//DEBUG_VALUE: ufs_try_get_tag:hctx <- $x21
	//DEBUG_VALUE: ufs_tagset_bt_get_slowpath:hctx <- $x21
	//DEBUG_VALUE: ufs_sbitmap_queue_get:bt <- $x20
	//DEBUG_VALUE: ufs_try_get_tag:bt <- $x20
	//DEBUG_VALUE: ufs_tagset_bt_get_slowpath:bt <- $x20
	//DEBUG_VALUE: ufs_sbitmap_queue_get:data <- $x19
	//DEBUG_VALUE: ufs_try_get_tag:data <- $x19
	//DEBUG_VALUE: ufs_tagset_bt_get_slowpath:data <- $x19
	//DEBUG_VALUE: ufs_tagset_bt_get:data <- $x19
	//DEBUG_VALUE: ufs_tagset_bt_get_slowpath:flags <- $w26
	//DEBUG_VALUE: ufs_tagset_bt_get_slowpath:mas_flags <- [DW_OP_plus_uconst 8] [$sp+0]
	mov	x0, x19
	bl	ufs_mq_vip_tag_wait_cnt
.Ltmp110:
	cbz	w0, .LBB2_24
.Ltmp111:
// %bb.22:                              //   in Loop: Header=BB2_13 Depth=1
	//DEBUG_VALUE: ufs_tagset_bt_get_slowpath:bs <- $x22
	//DEBUG_VALUE: ufs_try_get_tag:hctx <- $x21
	//DEBUG_VALUE: ufs_tagset_bt_get_slowpath:hctx <- $x21
	//DEBUG_VALUE: ufs_sbitmap_queue_get:bt <- $x20
	//DEBUG_VALUE: ufs_try_get_tag:bt <- $x20
	//DEBUG_VALUE: ufs_tagset_bt_get_slowpath:bt <- $x20
	//DEBUG_VALUE: ufs_sbitmap_queue_get:data <- $x19
	//DEBUG_VALUE: ufs_try_get_tag:data <- $x19
	//DEBUG_VALUE: ufs_tagset_bt_get_slowpath:data <- $x19
	//DEBUG_VALUE: ufs_tagset_bt_get:data <- $x19
	//DEBUG_VALUE: ufs_tagset_bt_get_slowpath:flags <- $w26
	//DEBUG_VALUE: ufs_tagset_bt_get_slowpath:mas_flags <- [DW_OP_plus_uconst 8] [$sp+0]
	//DEBUG_VALUE: ufs_sbitmap_fg_starved:data <- $x19
	.loc	2 146 13                        // kernel/platform_source/basicplatform/block/mas_blk_mq_tag.c:146:13
	ldr	x8, [x19, #24]
.Ltmp112:
	.loc	2 146 6 is_stmt 0               // kernel/platform_source/basicplatform/block/mas_blk_mq_tag.c:146:6
	cbz	x8, .LBB2_25
.Ltmp113:
// %bb.23:                              //   in Loop: Header=BB2_13 Depth=1
	//DEBUG_VALUE: ufs_tagset_bt_get_slowpath:bs <- $x22
	//DEBUG_VALUE: ufs_try_get_tag:hctx <- $x21
	//DEBUG_VALUE: ufs_tagset_bt_get_slowpath:hctx <- $x21
	//DEBUG_VALUE: ufs_sbitmap_queue_get:bt <- $x20
	//DEBUG_VALUE: ufs_try_get_tag:bt <- $x20
	//DEBUG_VALUE: ufs_tagset_bt_get_slowpath:bt <- $x20
	//DEBUG_VALUE: ufs_sbitmap_fg_starved:data <- $x19
	//DEBUG_VALUE: ufs_sbitmap_queue_get:data <- $x19
	//DEBUG_VALUE: ufs_try_get_tag:data <- $x19
	//DEBUG_VALUE: ufs_tagset_bt_get_slowpath:data <- $x19
	//DEBUG_VALUE: ufs_tagset_bt_get:data <- $x19
	//DEBUG_VALUE: ufs_tagset_bt_get_slowpath:flags <- $w26
	//DEBUG_VALUE: ufs_tagset_bt_get_slowpath:mas_flags <- [DW_OP_plus_uconst 8] [$sp+0]
	.loc	2 149 21 is_stmt 1              // kernel/platform_source/basicplatform/block/mas_blk_mq_tag.c:149:21
	bl	ktime_get
.Ltmp114:
	//DEBUG_VALUE: ktime_compare:cmp1 <- $x0
	//DEBUG_VALUE: ktime_after:cmp1 <- $x0
	.loc	2 150 22                        // kernel/platform_source/basicplatform/block/mas_blk_mq_tag.c:150:22
	ldr	x8, [x19, #24]
.Ltmp115:
	.loc	36 186 9                        // kernel/include/linux/ktime.h:186:9
	mov	w9, #25856
	movk	w9, #7629, lsl #16
.Ltmp116:
	//DEBUG_VALUE: ktime_add_ms:kt <- $x8
	//DEBUG_VALUE: ktime_add_ms:msec <- 500
	add	x8, x8, x9
.Ltmp117:
	//DEBUG_VALUE: ktime_compare:cmp2 <- $x8
	//DEBUG_VALUE: ktime_after:cmp2 <- $x8
	.loc	2 156 6                         // kernel/platform_source/basicplatform/block/mas_blk_mq_tag.c:156:6
	cmp	x0, x8
	b.le	.LBB2_25
.Ltmp118:
.LBB2_24:                               //   in Loop: Header=BB2_13 Depth=1
	//DEBUG_VALUE: ufs_tagset_bt_get_slowpath:bs <- $x22
	//DEBUG_VALUE: ufs_try_get_tag:hctx <- $x21
	//DEBUG_VALUE: ufs_tagset_bt_get_slowpath:hctx <- $x21
	//DEBUG_VALUE: ufs_sbitmap_queue_get:bt <- $x20
	//DEBUG_VALUE: ufs_try_get_tag:bt <- $x20
	//DEBUG_VALUE: ufs_tagset_bt_get_slowpath:bt <- $x20
	//DEBUG_VALUE: ufs_sbitmap_queue_get:data <- $x19
	//DEBUG_VALUE: ufs_try_get_tag:data <- $x19
	//DEBUG_VALUE: ufs_tagset_bt_get_slowpath:data <- $x19
	//DEBUG_VALUE: ufs_tagset_bt_get:data <- $x19
	//DEBUG_VALUE: ufs_tagset_bt_get_slowpath:flags <- $w26
	//DEBUG_VALUE: ufs_tagset_bt_get_slowpath:mas_flags <- [DW_OP_plus_uconst 8] [$sp+0]
	.loc	2 168 9                         // kernel/platform_source/basicplatform/block/mas_blk_mq_tag.c:168:9
	mov	x0, x20
	bl	__sbitmap_queue_get
.Ltmp119:
	//DEBUG_VALUE: ufs_tagset_bt_get_slowpath:tag <- $w0
	.loc	2 230 7                         // kernel/platform_source/basicplatform/block/mas_blk_mq_tag.c:230:7
	cmn	w0, #1                          // =1
	b.ne	.LBB2_41
.Ltmp120:
.LBB2_25:                               //   in Loop: Header=BB2_13 Depth=1
	//DEBUG_VALUE: ufs_tagset_bt_get_slowpath:bs <- $x22
	//DEBUG_VALUE: ufs_tagset_bt_get_slowpath:hctx <- $x21
	//DEBUG_VALUE: ufs_tagset_bt_get_slowpath:bt <- $x20
	//DEBUG_VALUE: ufs_tagset_bt_get_slowpath:data <- $x19
	//DEBUG_VALUE: ufs_tagset_bt_get:data <- $x19
	//DEBUG_VALUE: ufs_tagset_bt_get_slowpath:flags <- $w26
	//DEBUG_VALUE: ufs_tagset_bt_get_slowpath:mas_flags <- [DW_OP_plus_uconst 8] [$sp+0]
	//DEBUG_VALUE: ufs_sbitmap_is_fg:data <- $x19
	.loc	2 137 16                        // kernel/platform_source/basicplatform/block/mas_blk_mq_tag.c:137:16
	ldr	w8, [x19, #40]
	.loc	2 137 26 is_stmt 0              // kernel/platform_source/basicplatform/block/mas_blk_mq_tag.c:137:26
	tst	w8, w24
	.loc	2 137 41                        // kernel/platform_source/basicplatform/block/mas_blk_mq_tag.c:137:41
	b.eq	.LBB2_29
.Ltmp121:
// %bb.26:                              //   in Loop: Header=BB2_13 Depth=1
	//DEBUG_VALUE: ufs_tagset_bt_get_slowpath:bs <- $x22
	//DEBUG_VALUE: ufs_tagset_bt_get_slowpath:hctx <- $x21
	//DEBUG_VALUE: ufs_tagset_bt_get_slowpath:bt <- $x20
	//DEBUG_VALUE: ufs_tagset_bt_get_slowpath:data <- $x19
	//DEBUG_VALUE: ufs_tagset_bt_get:data <- $x19
	//DEBUG_VALUE: ufs_tagset_bt_get_slowpath:flags <- $w26
	//DEBUG_VALUE: ufs_tagset_bt_get_slowpath:mas_flags <- [DW_OP_plus_uconst 8] [$sp+0]
	.loc	2 236 7 is_stmt 1               // kernel/platform_source/basicplatform/block/mas_blk_mq_tag.c:236:7
	ldrb	w8, [x19, #16]
	tbnz	w8, #1, .LBB2_29
.Ltmp122:
// %bb.27:                              //   in Loop: Header=BB2_13 Depth=1
	//DEBUG_VALUE: ufs_tagset_bt_get_slowpath:bs <- $x22
	//DEBUG_VALUE: ufs_tagset_bt_get_slowpath:hctx <- $x21
	//DEBUG_VALUE: ufs_tagset_bt_get_slowpath:bt <- $x20
	//DEBUG_VALUE: ufs_tagset_bt_get_slowpath:data <- $x19
	//DEBUG_VALUE: ufs_tagset_bt_get:data <- $x19
	//DEBUG_VALUE: ufs_tagset_bt_get_slowpath:flags <- $w26
	//DEBUG_VALUE: ufs_tagset_bt_get_slowpath:mas_flags <- [DW_OP_plus_uconst 8] [$sp+0]
	.loc	2 237 9                         // kernel/platform_source/basicplatform/block/mas_blk_mq_tag.c:237:9
	mov	w0, #1
	bl	io_schedule_timeout
.Ltmp123:
	.loc	2 237 8 is_stmt 0               // kernel/platform_source/basicplatform/block/mas_blk_mq_tag.c:237:8
	cbnz	x0, .LBB2_30
.Ltmp124:
// %bb.28:                              //   in Loop: Header=BB2_13 Depth=1
	//DEBUG_VALUE: ufs_tagset_bt_get_slowpath:bs <- $x22
	//DEBUG_VALUE: ufs_tagset_bt_get_slowpath:hctx <- $x21
	//DEBUG_VALUE: ufs_tagset_bt_get_slowpath:bt <- $x20
	//DEBUG_VALUE: ufs_tagset_bt_get_slowpath:data <- $x19
	//DEBUG_VALUE: ufs_tagset_bt_get:data <- $x19
	//DEBUG_VALUE: ufs_tagset_bt_get_slowpath:flags <- $w26
	//DEBUG_VALUE: ufs_tagset_bt_get_slowpath:mas_flags <- [DW_OP_plus_uconst 8] [$sp+0]
	.loc	2 238 5 is_stmt 1               // kernel/platform_source/basicplatform/block/mas_blk_mq_tag.c:238:5
	mov	x0, x19
	bl	reset_vip_wait_cnt
.Ltmp125:
	.loc	2 0 5 is_stmt 0                 // kernel/platform_source/basicplatform/block/mas_blk_mq_tag.c:0:5
	b	.LBB2_30
.Ltmp126:
.LBB2_29:                               //   in Loop: Header=BB2_13 Depth=1
	//DEBUG_VALUE: ufs_tagset_bt_get_slowpath:bs <- $x22
	//DEBUG_VALUE: ufs_tagset_bt_get_slowpath:hctx <- $x21
	//DEBUG_VALUE: ufs_tagset_bt_get_slowpath:bt <- $x20
	//DEBUG_VALUE: ufs_tagset_bt_get_slowpath:data <- $x19
	//DEBUG_VALUE: ufs_tagset_bt_get:data <- $x19
	//DEBUG_VALUE: ufs_tagset_bt_get_slowpath:flags <- $w26
	//DEBUG_VALUE: ufs_tagset_bt_get_slowpath:mas_flags <- [DW_OP_plus_uconst 8] [$sp+0]
	.loc	2 240 4 is_stmt 1               // kernel/platform_source/basicplatform/block/mas_blk_mq_tag.c:240:4
	bl	io_schedule
.Ltmp127:
.LBB2_30:                               //   in Loop: Header=BB2_13 Depth=1
	//DEBUG_VALUE: ufs_tagset_bt_get_slowpath:bs <- $x22
	//DEBUG_VALUE: ufs_tagset_bt_get_slowpath:hctx <- $x21
	//DEBUG_VALUE: ufs_tagset_bt_get_slowpath:bt <- $x20
	//DEBUG_VALUE: ufs_tagset_bt_get_slowpath:data <- $x19
	//DEBUG_VALUE: ufs_tagset_bt_get:data <- $x19
	//DEBUG_VALUE: ufs_tagset_bt_get_slowpath:flags <- $w26
	//DEBUG_VALUE: ufs_tagset_bt_get_slowpath:mas_flags <- [DW_OP_plus_uconst 8] [$sp+0]
	.loc	2 243 36                        // kernel/platform_source/basicplatform/block/mas_blk_mq_tag.c:243:36
	ldr	x8, [x19]
.Ltmp128:
	//DEBUG_VALUE: blk_mq_get_ctx:q <- $x8
	.file	151 "/mnt/disk/jenkins/ci/workspace/chipset_pipeline_release/opensource/component_code/vendor/huawei/extra/build/build_script/kirin_kernel_release" "kernel/arch/arm64/include/asm/percpu.h"
	.loc	151 39 2                        // kernel/arch/arm64/include/asm/percpu.h:39:2
	//APP
.Ltmp129:
	mrs	x9, TPIDR_EL1
.Ltmp130:
	.section	.altinstructions,"a",@progbits
.Ltmp131:
	.word	.Ltmp129-.Ltmp131
.Ltmp133:
	.word	.Ltmp132-.Ltmp133
	.hword	11
	.byte	.Ltmp130-.Ltmp129
	.byte	.Ltmp134-.Ltmp132
	.text

	.text	1
.Ltmp132:
	mrs	x9, TPIDR_EL2
.Ltmp134:
.Ltmp135:
.org (.Ltmp135-(.Ltmp134-.Ltmp132))+(.Ltmp130-.Ltmp129), 0
.Ltmp136:
.org (.Ltmp136-(.Ltmp130-.Ltmp129))+(.Ltmp134-.Ltmp132), 0
	.text


	//NO_APP
.Ltmp137:
	//DEBUG_VALUE: __ptr <- $x25
	//DEBUG_VALUE: __kern_my_cpu_offset:off <- $x9
	.loc	105 162 29                      // kernel/block/blk-mq.h:162:29
	ldr	w9, [x9, x25]
.Ltmp138:
	//DEBUG_VALUE: __blk_mq_get_ctx:cpu <- undef
	//DEBUG_VALUE: __blk_mq_get_ctx:q <- undef
	.loc	105 151 9                       // kernel/block/blk-mq.h:151:9
	ldr	x8, [x8, #56]
.Ltmp139:
	//DEBUG_VALUE: __ptr <- $x8
	ldr	x9, [x27, x9, lsl #3]
	//DEBUG_VALUE: __ptr <- $x8
	add	x8, x9, x8
.Ltmp140:
	.loc	2 243 13                        // kernel/platform_source/basicplatform/block/mas_blk_mq_tag.c:243:13
	str	x8, [x19, #48]
.Ltmp141:
	//DEBUG_VALUE: blk_mq_map_queue:type <- undef
	//DEBUG_VALUE: blk_mq_map_queue:ctx <- $x8
	//DEBUG_VALUE: blk_mq_map_queue:flags <- $w26
	//DEBUG_VALUE: blk_mq_map_queue:q <- undef
	.loc	105 133 9                       // kernel/block/blk-mq.h:133:9
	add	x8, x8, x28, lsl #3
.Ltmp142:
	ldr	x8, [x8, #144]
.Ltmp143:
	.loc	2 245 14                        // kernel/platform_source/basicplatform/block/mas_blk_mq_tag.c:245:14
	str	x8, [x19, #56]
	.loc	2 249 7                         // kernel/platform_source/basicplatform/block/mas_blk_mq_tag.c:249:7
	cbz	x8, .LBB2_42
.Ltmp144:
// %bb.31:                              //   in Loop: Header=BB2_13 Depth=1
	//DEBUG_VALUE: ufs_tagset_bt_get_slowpath:bs <- $x22
	//DEBUG_VALUE: ufs_tagset_bt_get_slowpath:hctx <- $x21
	//DEBUG_VALUE: ufs_tagset_bt_get_slowpath:bt <- $x20
	//DEBUG_VALUE: ufs_tagset_bt_get_slowpath:data <- $x19
	//DEBUG_VALUE: ufs_tagset_bt_get:data <- $x19
	//DEBUG_VALUE: ufs_tagset_bt_get_slowpath:flags <- $w26
	//DEBUG_VALUE: ufs_tagset_bt_get_slowpath:mas_flags <- [DW_OP_plus_uconst 8] [$sp+0]
	.loc	2 252 7                         // kernel/platform_source/basicplatform/block/mas_blk_mq_tag.c:252:7
	cmp	x21, x8
	b.ne	.LBB2_33
.Ltmp145:
.LBB2_32:                               //   in Loop: Header=BB2_13 Depth=1
	//DEBUG_VALUE: ufs_tagset_bt_get_slowpath:bs <- $x22
	//DEBUG_VALUE: ufs_tagset_bt_get_slowpath:bt <- $x20
	//DEBUG_VALUE: ufs_tagset_bt_get_slowpath:data <- $x19
	//DEBUG_VALUE: ufs_tagset_bt_get:data <- $x19
	//DEBUG_VALUE: ufs_tagset_bt_get_slowpath:flags <- $w26
	//DEBUG_VALUE: ufs_tagset_bt_get_slowpath:mas_flags <- [DW_OP_plus_uconst 8] [$sp+0]
	//DEBUG_VALUE: ufs_tagset_bt_get_slowpath:bt <- $x20
	//DEBUG_VALUE: ufs_tagset_bt_get_slowpath:hctx <- $x21
	//DEBUG_LABEL: finish_wait
	.loc	2 274 3                         // kernel/platform_source/basicplatform/block/mas_blk_mq_tag.c:274:3
	add	x2, sp, #16                     // =16
	mov	x0, x20
	mov	x1, x22
	bl	sbitmap_finish_wait
.Ltmp146:
	.loc	2 0 3 is_stmt 0                 // kernel/platform_source/basicplatform/block/mas_blk_mq_tag.c:0:3
	b	.LBB2_13
.Ltmp147:
.LBB2_33:                               //   in Loop: Header=BB2_13 Depth=1
	//DEBUG_VALUE: ufs_tagset_bt_get_slowpath:bs <- $x22
	//DEBUG_VALUE: ufs_tagset_bt_get_slowpath:hctx <- $x21
	//DEBUG_VALUE: ufs_tagset_bt_get_slowpath:bt <- $x20
	//DEBUG_VALUE: ufs_tagset_bt_get_slowpath:data <- $x19
	//DEBUG_VALUE: ufs_tagset_bt_get:data <- $x19
	//DEBUG_VALUE: ufs_tagset_bt_get_slowpath:flags <- $w26
	//DEBUG_VALUE: ufs_tagset_bt_get_slowpath:mas_flags <- [DW_OP_plus_uconst 8] [$sp+0]
	ldr	x9, [x8, #336]
.Ltmp148:
	.loc	2 255 7 is_stmt 1               // kernel/platform_source/basicplatform/block/mas_blk_mq_tag.c:255:7
	tbz	w26, #11, .LBB2_37
.Ltmp149:
// %bb.34:                              //   in Loop: Header=BB2_13 Depth=1
	//DEBUG_VALUE: ufs_tagset_bt_get_slowpath:bs <- $x22
	//DEBUG_VALUE: ufs_tagset_bt_get_slowpath:hctx <- $x21
	//DEBUG_VALUE: ufs_tagset_bt_get_slowpath:bt <- $x20
	//DEBUG_VALUE: ufs_tagset_bt_get_slowpath:data <- $x19
	//DEBUG_VALUE: ufs_tagset_bt_get:data <- $x19
	//DEBUG_VALUE: ufs_tagset_bt_get_slowpath:flags <- $w26
	//DEBUG_VALUE: ufs_tagset_bt_get_slowpath:mas_flags <- [DW_OP_plus_uconst 8] [$sp+0]
	.loc	2 0 7 is_stmt 0                 // kernel/platform_source/basicplatform/block/mas_blk_mq_tag.c:0:7
	ldr	w10, [sp, #4]                   // 4-byte Folded Reload
.Ltmp150:
	.loc	2 256 8 is_stmt 1               // kernel/platform_source/basicplatform/block/mas_blk_mq_tag.c:256:8
	cbnz	w10, .LBB2_38
.Ltmp151:
// %bb.35:                              //   in Loop: Header=BB2_13 Depth=1
	//DEBUG_VALUE: ufs_tagset_bt_get_slowpath:bs <- $x22
	//DEBUG_VALUE: ufs_tagset_bt_get_slowpath:hctx <- $x21
	//DEBUG_VALUE: ufs_tagset_bt_get_slowpath:bt <- $x20
	//DEBUG_VALUE: ufs_tagset_bt_get_slowpath:data <- $x19
	//DEBUG_VALUE: ufs_tagset_bt_get:data <- $x19
	//DEBUG_VALUE: ufs_tagset_bt_get_slowpath:flags <- $w26
	//DEBUG_VALUE: ufs_tagset_bt_get_slowpath:mas_flags <- [DW_OP_plus_uconst 8] [$sp+0]
	.loc	2 258 28                        // kernel/platform_source/basicplatform/block/mas_blk_mq_tag.c:258:28
	ldr	x20, [x9, #40]
.Ltmp152:
	//DEBUG_VALUE: ufs_tagset_bt_get:bt <- [DW_OP_LLVM_entry_value 1] $x1
	//DEBUG_VALUE: ufs_tagset_bt_get_slowpath:bt <- $x20
.LBB2_36:                               //   in Loop: Header=BB2_13 Depth=1
	//DEBUG_VALUE: ufs_tagset_bt_get_slowpath:bs <- $x22
	//DEBUG_VALUE: ufs_tagset_bt_get_slowpath:hctx <- $x21
	//DEBUG_VALUE: ufs_tagset_bt_get_slowpath:bt <- $x20
	//DEBUG_VALUE: ufs_tagset_bt_get_slowpath:data <- $x19
	//DEBUG_VALUE: ufs_tagset_bt_get:data <- $x19
	//DEBUG_VALUE: ufs_tagset_bt_get_slowpath:flags <- $w26
	//DEBUG_VALUE: ufs_tagset_bt_get_slowpath:mas_flags <- [DW_OP_plus_uconst 8] [$sp+0]
	.loc	2 0 28 is_stmt 0                // kernel/platform_source/basicplatform/block/mas_blk_mq_tag.c:0:28
	mov	x21, x8
.Ltmp153:
	//DEBUG_VALUE: ufs_tagset_bt_get:hctx <- [DW_OP_LLVM_entry_value 1] $x2
	b	.LBB2_32
.Ltmp154:
.LBB2_37:                               //   in Loop: Header=BB2_13 Depth=1
	//DEBUG_VALUE: ufs_tagset_bt_get_slowpath:bs <- $x22
	//DEBUG_VALUE: ufs_tagset_bt_get_slowpath:hctx <- $x21
	//DEBUG_VALUE: ufs_tagset_bt_get_slowpath:bt <- $x20
	//DEBUG_VALUE: ufs_tagset_bt_get_slowpath:data <- $x19
	//DEBUG_VALUE: ufs_tagset_bt_get:data <- $x19
	//DEBUG_VALUE: ufs_tagset_bt_get_slowpath:flags <- $w26
	//DEBUG_VALUE: ufs_tagset_bt_get_slowpath:mas_flags <- [DW_OP_plus_uconst 8] [$sp+0]
	.loc	2 266 27 is_stmt 1              // kernel/platform_source/basicplatform/block/mas_blk_mq_tag.c:266:27
	ldr	x20, [x9, #48]
.Ltmp155:
	//DEBUG_VALUE: ufs_tagset_bt_get:bt <- [DW_OP_LLVM_entry_value 1] $x1
	//DEBUG_VALUE: ufs_tagset_bt_get_slowpath:bt <- $x20
	.loc	2 0 27 is_stmt 0                // kernel/platform_source/basicplatform/block/mas_blk_mq_tag.c:0:27
	b	.LBB2_36
.Ltmp156:
.LBB2_38:                               //   in Loop: Header=BB2_13 Depth=1
	//DEBUG_VALUE: ufs_tagset_bt_get_slowpath:bs <- $x22
	//DEBUG_VALUE: ufs_tagset_bt_get_slowpath:hctx <- $x21
	//DEBUG_VALUE: ufs_tagset_bt_get_slowpath:bt <- $x20
	//DEBUG_VALUE: ufs_tagset_bt_get_slowpath:data <- $x19
	//DEBUG_VALUE: ufs_tagset_bt_get:data <- $x19
	//DEBUG_VALUE: ufs_tagset_bt_get_slowpath:flags <- $w26
	//DEBUG_VALUE: ufs_tagset_bt_get_slowpath:mas_flags <- [DW_OP_plus_uconst 8] [$sp+0]
	.loc	2 263 29 is_stmt 1              // kernel/platform_source/basicplatform/block/mas_blk_mq_tag.c:263:29
	add	x20, x9, #56                    // =56
.Ltmp157:
	//DEBUG_VALUE: ufs_tagset_bt_get:bt <- [DW_OP_LLVM_entry_value 1] $x1
	//DEBUG_VALUE: ufs_tagset_bt_get_slowpath:bt <- $x20
	.loc	2 0 29 is_stmt 0                // kernel/platform_source/basicplatform/block/mas_blk_mq_tag.c:0:29
	b	.LBB2_36
.Ltmp158:
.LBB2_39:
	//DEBUG_VALUE: ufs_tagset_bt_get:hctx <- $x2
	//DEBUG_VALUE: ufs_tagset_bt_get:bt <- $x1
	//DEBUG_VALUE: ufs_tagset_bt_get:data <- $x0
	mov	w23, #-1
.Ltmp159:
.LBB2_40:
	.loc	2 320 1 is_stmt 1               // kernel/platform_source/basicplatform/block/mas_blk_mq_tag.c:320:1
	mov	w0, w23
	ldp	x20, x19, [sp, #144]            // 16-byte Folded Reload
	ldp	x22, x21, [sp, #128]            // 16-byte Folded Reload
	ldp	x24, x23, [sp, #112]            // 16-byte Folded Reload
	ldp	x26, x25, [sp, #96]             // 16-byte Folded Reload
	ldp	x28, x27, [sp, #80]             // 16-byte Folded Reload
	ldp	x29, x30, [sp, #64]             // 16-byte Folded Reload
	add	sp, sp, #160                    // =160
	ret
.LBB2_41:
	//DEBUG_VALUE: ufs_tagset_bt_get_slowpath:bs <- $x22
	//DEBUG_VALUE: ufs_try_get_tag:hctx <- $x21
	//DEBUG_VALUE: ufs_tagset_bt_get_slowpath:hctx <- $x21
	//DEBUG_VALUE: ufs_try_get_tag:bt <- $x20
	//DEBUG_VALUE: ufs_tagset_bt_get_slowpath:bt <- $x20
	//DEBUG_VALUE: ufs_try_get_tag:data <- $x19
	//DEBUG_VALUE: ufs_tagset_bt_get_slowpath:data <- $x19
.Ltmp160:
	//DEBUG_VALUE: ufs_tagset_bt_get:data <- $x19
	//DEBUG_VALUE: ufs_tagset_bt_get_slowpath:flags <- $w26
	//DEBUG_VALUE: ufs_tagset_bt_get_slowpath:mas_flags <- [DW_OP_plus_uconst 8] [$sp+0]
	.loc	2 0 1 is_stmt 0                 // kernel/platform_source/basicplatform/block/mas_blk_mq_tag.c:0:1
	mov	w23, w0
	//DEBUG_VALUE: ufs_try_get_tag:tag <- $w23
	b	.LBB2_43
.Ltmp161:
.LBB2_42:
	//DEBUG_VALUE: __ptr <- $x25
	//DEBUG_VALUE: ufs_tagset_bt_get_slowpath:bs <- $x22
	//DEBUG_VALUE: ufs_tagset_bt_get_slowpath:hctx <- $x21
	//DEBUG_VALUE: ufs_tagset_bt_get_slowpath:bt <- $x20
	//DEBUG_VALUE: ufs_tagset_bt_get_slowpath:data <- $x19
	//DEBUG_VALUE: ufs_tagset_bt_get:data <- $x19
	//DEBUG_VALUE: blk_mq_map_queue:flags <- $w26
	//DEBUG_VALUE: ufs_tagset_bt_get_slowpath:flags <- $w26
	//DEBUG_VALUE: ufs_tagset_bt_get_slowpath:mas_flags <- [DW_OP_plus_uconst 8] [$sp+0]
	mov	w23, #-1
.Ltmp162:
.LBB2_43:
	//DEBUG_VALUE: ufs_tagset_bt_get_slowpath:bs <- $x22
	//DEBUG_VALUE: ufs_tagset_bt_get_slowpath:hctx <- $x21
	//DEBUG_VALUE: ufs_tagset_bt_get_slowpath:bt <- $x20
	//DEBUG_VALUE: ufs_tagset_bt_get_slowpath:data <- $x19
	//DEBUG_VALUE: ufs_tagset_bt_get:data <- $x19
	//DEBUG_VALUE: ufs_tagset_bt_get_slowpath:flags <- $w26
	//DEBUG_VALUE: ufs_tagset_bt_get_slowpath:mas_flags <- [DW_OP_plus_uconst 8] [$sp+0]
	ldr	x8, [sp, #8]                    // 8-byte Folded Reload
.Ltmp163:
	.loc	2 280 6 is_stmt 1               // kernel/platform_source/basicplatform/block/mas_blk_mq_tag.c:280:6
	tbz	w8, #1, .LBB2_45
.Ltmp164:
// %bb.44:
	//DEBUG_VALUE: ufs_tagset_bt_get_slowpath:bs <- $x22
	//DEBUG_VALUE: ufs_tagset_bt_get_slowpath:hctx <- $x21
	//DEBUG_VALUE: ufs_tagset_bt_get_slowpath:bt <- $x20
	//DEBUG_VALUE: ufs_tagset_bt_get_slowpath:data <- $x19
	//DEBUG_VALUE: ufs_tagset_bt_get:data <- $x19
	//DEBUG_VALUE: ufs_tagset_bt_get_slowpath:flags <- $w26
	//DEBUG_VALUE: ufs_tagset_bt_get_slowpath:mas_flags <- [DW_OP_plus_uconst 8] [$sp+0]
	.loc	2 281 3                         // kernel/platform_source/basicplatform/block/mas_blk_mq_tag.c:281:3
	mov	x0, x19
	bl	ufs_mq_dec_vip_wait_cnt
.Ltmp165:
.LBB2_45:
	//DEBUG_VALUE: ufs_tagset_bt_get_slowpath:bs <- $x22
	//DEBUG_VALUE: ufs_tagset_bt_get_slowpath:hctx <- $x21
	//DEBUG_VALUE: ufs_tagset_bt_get_slowpath:bt <- $x20
	//DEBUG_VALUE: ufs_tagset_bt_get_slowpath:data <- $x19
	//DEBUG_VALUE: ufs_tagset_bt_get:data <- $x19
	//DEBUG_VALUE: ufs_tagset_bt_get_slowpath:flags <- $w26
	//DEBUG_VALUE: ufs_tagset_bt_get_slowpath:mas_flags <- [DW_OP_plus_uconst 8] [$sp+0]
	.loc	2 284 2                         // kernel/platform_source/basicplatform/block/mas_blk_mq_tag.c:284:2
	add	x2, sp, #16                     // =16
	mov	x0, x20
	mov	x1, x22
	bl	sbitmap_finish_wait
.Ltmp166:
	.loc	2 0 2 is_stmt 0                 // kernel/platform_source/basicplatform/block/mas_blk_mq_tag.c:0:2
	b	.LBB2_40
.Ltmp167:
.Lfunc_end2:
	.size	ufs_tagset_bt_get, .Lfunc_end2-ufs_tagset_bt_get
	.cfi_endproc
	.file	152 "/mnt/disk/jenkins/ci/workspace/chipset_pipeline_release/opensource/component_code/vendor/huawei/extra/build/build_script/kirin_kernel_release" "kernel/include/platform_include/basicplatform/linux/mas/mas_blk_mq_tag.h"
	.file	153 "/mnt/disk/jenkins/ci/workspace/chipset_pipeline_release/opensource/component_code/vendor/huawei/extra/build/build_script/kirin_kernel_release" "kernel/include/linux/timekeeping.h"
                                        // -- End function
	.globl	ufs_tagset_all_tag_busy_iter    // -- Begin function ufs_tagset_all_tag_busy_iter
	.p2align	2
	.type	ufs_tagset_all_tag_busy_iter,@function
ufs_tagset_all_tag_busy_iter:           // @ufs_tagset_all_tag_busy_iter
.Lfunc_begin3:
	.loc	2 492 0 is_stmt 1               // kernel/platform_source/basicplatform/block/mas_blk_mq_tag.c:492:0
	.cfi_startproc
// %bb.0:
	//DEBUG_VALUE: ufs_tagset_all_tag_busy_iter:tags <- $x0
	//DEBUG_VALUE: ufs_tagset_all_tag_busy_iter:fn <- $x1
	//DEBUG_VALUE: ufs_tagset_all_tag_busy_iter:priv <- $x2
	sub	sp, sp, #64                     // =64
	stp	x29, x30, [sp, #32]             // 16-byte Folded Spill
	str	x19, [sp, #48]                  // 8-byte Folded Spill
	add	x29, sp, #32                    // =32
	.cfi_def_cfa w29, 32
	.cfi_offset w19, -16
	.cfi_offset w30, -24
	.cfi_offset w29, -32
.Ltmp168:
	.loc	2 495 17 prologue_end           // kernel/platform_source/basicplatform/block/mas_blk_mq_tag.c:495:17
	stp	x0, x1, [sp]
	.loc	2 497 17                        // kernel/platform_source/basicplatform/block/mas_blk_mq_tag.c:497:17
	str	x2, [sp, #16]
	.loc	2 499 21                        // kernel/platform_source/basicplatform/block/mas_blk_mq_tag.c:499:21
	strh	wzr, [sp, #24]
	mov	x19, x0
	//DEBUG_VALUE: ufs_tagset_all_tag_busy_iter:priv <- $x2
	//DEBUG_VALUE: ufs_tagset_all_tag_busy_iter:fn <- $x1
.Ltmp169:
	//DEBUG_VALUE: ufs_tagset_all_tag_busy_iter:tags <- $x19
	.loc	2 502 36                        // kernel/platform_source/basicplatform/block/mas_blk_mq_tag.c:502:36
	ldr	x0, [x0, #40]
	.loc	2 502 2 is_stmt 0               // kernel/platform_source/basicplatform/block/mas_blk_mq_tag.c:502:2
	mov	x1, sp
.Ltmp170:
	//DEBUG_VALUE: ufs_tagset_all_tag_busy_iter:fn <- [DW_OP_LLVM_entry_value 1] $x1
	bl	ufs_tagset_bt_tags_for_each
.Ltmp171:
	//DEBUG_VALUE: ufs_tagset_all_tag_busy_iter:priv <- [DW_OP_LLVM_entry_value 1] $x2
	.loc	2 507 12 is_stmt 1              // kernel/platform_source/basicplatform/block/mas_blk_mq_tag.c:507:12
	ldr	w8, [x19, #8]
.Ltmp172:
	.loc	2 507 6 is_stmt 0               // kernel/platform_source/basicplatform/block/mas_blk_mq_tag.c:507:6
	cbz	w8, .LBB3_2
.Ltmp173:
// %bb.1:
	//DEBUG_VALUE: ufs_tagset_all_tag_busy_iter:tags <- $x19
	//DEBUG_VALUE: ufs_tagset_all_tag_busy_iter:priv <- [DW_OP_LLVM_entry_value 1] $x2
	//DEBUG_VALUE: ufs_tagset_all_tag_busy_iter:fn <- [DW_OP_LLVM_entry_value 1] $x1
	.loc	2 0 6                           // kernel/platform_source/basicplatform/block/mas_blk_mq_tag.c:0:6
	mov	w8, #1
.Ltmp174:
	.loc	2 509 38 is_stmt 1              // kernel/platform_source/basicplatform/block/mas_blk_mq_tag.c:509:38
	add	x0, x19, #56                    // =56
	.loc	2 509 3 is_stmt 0               // kernel/platform_source/basicplatform/block/mas_blk_mq_tag.c:509:3
	mov	x1, sp
	.loc	2 508 19 is_stmt 1              // kernel/platform_source/basicplatform/block/mas_blk_mq_tag.c:508:19
	strb	w8, [sp, #25]
	.loc	2 509 3                         // kernel/platform_source/basicplatform/block/mas_blk_mq_tag.c:509:3
	bl	ufs_tagset_bt_tags_for_each
.Ltmp175:
.LBB3_2:
	//DEBUG_VALUE: ufs_tagset_all_tag_busy_iter:tags <- $x19
	//DEBUG_VALUE: ufs_tagset_all_tag_busy_iter:priv <- [DW_OP_LLVM_entry_value 1] $x2
	//DEBUG_VALUE: ufs_tagset_all_tag_busy_iter:fn <- [DW_OP_LLVM_entry_value 1] $x1
	.loc	2 512 12                        // kernel/platform_source/basicplatform/block/mas_blk_mq_tag.c:512:12
	ldr	w8, [x19, #4]
.Ltmp176:
	.loc	2 512 6 is_stmt 0               // kernel/platform_source/basicplatform/block/mas_blk_mq_tag.c:512:6
	cbz	w8, .LBB3_4
.Ltmp177:
// %bb.3:
	//DEBUG_VALUE: ufs_tagset_all_tag_busy_iter:tags <- $x19
	//DEBUG_VALUE: ufs_tagset_all_tag_busy_iter:priv <- [DW_OP_LLVM_entry_value 1] $x2
	//DEBUG_VALUE: ufs_tagset_all_tag_busy_iter:fn <- [DW_OP_LLVM_entry_value 1] $x1
	.loc	2 0 6                           // kernel/platform_source/basicplatform/block/mas_blk_mq_tag.c:0:6
	mov	w8, #1
.Ltmp178:
	.loc	2 513 22 is_stmt 1              // kernel/platform_source/basicplatform/block/mas_blk_mq_tag.c:513:22
	strh	w8, [sp, #24]
	.loc	2 516 37                        // kernel/platform_source/basicplatform/block/mas_blk_mq_tag.c:516:37
	ldr	x0, [x19, #48]
	.loc	2 516 3 is_stmt 0               // kernel/platform_source/basicplatform/block/mas_blk_mq_tag.c:516:3
	mov	x1, sp
	bl	ufs_tagset_bt_tags_for_each
.Ltmp179:
.LBB3_4:
	//DEBUG_VALUE: ufs_tagset_all_tag_busy_iter:tags <- $x19
	//DEBUG_VALUE: ufs_tagset_all_tag_busy_iter:priv <- [DW_OP_LLVM_entry_value 1] $x2
	//DEBUG_VALUE: ufs_tagset_all_tag_busy_iter:fn <- [DW_OP_LLVM_entry_value 1] $x1
	.loc	2 521 1 is_stmt 1               // kernel/platform_source/basicplatform/block/mas_blk_mq_tag.c:521:1
	ldr	x19, [sp, #48]                  // 8-byte Folded Reload
.Ltmp180:
	ldp	x29, x30, [sp, #32]             // 16-byte Folded Reload
	add	sp, sp, #64                     // =64
	ret
.Ltmp181:
.Lfunc_end3:
	.size	ufs_tagset_all_tag_busy_iter, .Lfunc_end3-ufs_tagset_all_tag_busy_iter
	.cfi_endproc
                                        // -- End function
	.p2align	2                               // -- Begin function ufs_tagset_bt_tags_for_each
	.type	ufs_tagset_bt_tags_for_each,@function
ufs_tagset_bt_tags_for_each:            // @ufs_tagset_bt_tags_for_each
.Lfunc_begin4:
	.loc	2 128 0                         // kernel/platform_source/basicplatform/block/mas_blk_mq_tag.c:128:0
	.cfi_startproc
// %bb.0:
	//DEBUG_VALUE: ufs_tagset_bt_tags_for_each:bt <- $x0
	//DEBUG_VALUE: ufs_tagset_bt_tags_for_each:iter_data <- $x1
	//DEBUG_VALUE: ufs_tagset_bt_tags_for_each:iter_data <- $x1
	sub	sp, sp, #96                     // =96
	stp	x29, x30, [sp, #16]             // 16-byte Folded Spill
	stp	x26, x25, [sp, #32]             // 16-byte Folded Spill
	stp	x24, x23, [sp, #48]             // 16-byte Folded Spill
	stp	x22, x21, [sp, #64]             // 16-byte Folded Spill
	stp	x20, x19, [sp, #80]             // 16-byte Folded Spill
	add	x29, sp, #16                    // =16
	.cfi_def_cfa w29, 80
	.cfi_offset w19, -8
	.cfi_offset w20, -16
	.cfi_offset w21, -24
	.cfi_offset w22, -32
	.cfi_offset w23, -40
	.cfi_offset w24, -48
	.cfi_offset w25, -56
	.cfi_offset w26, -64
	.cfi_offset w30, -72
	.cfi_offset w29, -80
.Ltmp182:
	.loc	2 129 17 prologue_end           // kernel/platform_source/basicplatform/block/mas_blk_mq_tag.c:129:17
	ldr	x8, [x1]
	.loc	2 129 23 is_stmt 0              // kernel/platform_source/basicplatform/block/mas_blk_mq_tag.c:129:23
	ldr	x8, [x8, #248]
.Ltmp183:
	//DEBUG_VALUE: ufs_tagset_bt_tags_for_each:bt <- $x0
	.loc	2 129 6                         // kernel/platform_source/basicplatform/block/mas_blk_mq_tag.c:129:6
	cbz	x8, .LBB4_14
.Ltmp184:
// %bb.1:
	//DEBUG_VALUE: ufs_tagset_bt_tags_for_each:iter_data <- $x1
	//DEBUG_VALUE: ufs_tagset_bt_tags_for_each:bt <- $x0
	//DEBUG_VALUE: ufs_tagset_bt_tags_for_each:iter_data <- $x1
	.loc	106 247 23 is_stmt 1            // kernel/include/linux/sbitmap.h:247:23
	ldr	w8, [x0]
	mov	x20, x0
.Ltmp185:
	//DEBUG_VALUE: ufs_tagset_bt_tags_for_each:bt <- $x20
	//DEBUG_VALUE: ufs_tagset_bt_tags_for_each:bt <- $x20
	//DEBUG_VALUE: sbitmap_for_each_set:sb <- $x20
	//DEBUG_VALUE: sbitmap_for_each_set:data <- $x1
	//DEBUG_VALUE: __sbitmap_for_each_set:sb <- $x20
	//DEBUG_VALUE: __sbitmap_for_each_set:start <- 0
	//DEBUG_VALUE: __sbitmap_for_each_set:data <- $x1
	//DEBUG_VALUE: __sbitmap_for_each_set:scanned <- 0
	//DEBUG_VALUE: __sbitmap_for_each_set:index <- 0
	//DEBUG_VALUE: __sbitmap_for_each_set:nr <- 0
	.loc	106 247 2 is_stmt 0             // kernel/include/linux/sbitmap.h:247:2
	cbz	w8, .LBB4_14
.Ltmp186:
// %bb.2:
	//DEBUG_VALUE: __sbitmap_for_each_set:sb <- $x20
	//DEBUG_VALUE: sbitmap_for_each_set:sb <- $x20
	//DEBUG_VALUE: ufs_tagset_bt_tags_for_each:bt <- $x20
	//DEBUG_VALUE: __sbitmap_for_each_set:data <- $x1
	//DEBUG_VALUE: sbitmap_for_each_set:data <- $x1
	//DEBUG_VALUE: ufs_tagset_bt_tags_for_each:iter_data <- $x1
	//DEBUG_VALUE: __sbitmap_for_each_set:nr <- 0
	//DEBUG_VALUE: __sbitmap_for_each_set:index <- 0
	//DEBUG_VALUE: __sbitmap_for_each_set:scanned <- 0
	//DEBUG_VALUE: __sbitmap_for_each_set:start <- 0
	.loc	106 0 2                         // kernel/include/linux/sbitmap.h:0:2
	mov	x19, x1
.Ltmp187:
	//DEBUG_VALUE: ufs_tagset_bt_tags_for_each:iter_data <- $x19
	//DEBUG_VALUE: __sbitmap_for_each_set:data <- $x19
	//DEBUG_VALUE: sbitmap_for_each_set:data <- $x19
	//DEBUG_VALUE: ufs_tagset_bt_tags_for_each:iter_data <- $x19
	//DEBUG_VALUE: sbitmap_for_each_set:sb <- $x20
	//DEBUG_VALUE: __sbitmap_for_each_set:sb <- $x20
	mov	w23, wzr
	mov	w24, wzr
	mov	w25, #192
	b	.LBB4_4
.Ltmp188:
.LBB4_3:                                //   in Loop: Header=BB4_4 Depth=1
	//DEBUG_VALUE: __sbitmap_for_each_set:sb <- $x20
	//DEBUG_VALUE: sbitmap_for_each_set:sb <- $x20
	//DEBUG_VALUE: ufs_tagset_bt_tags_for_each:bt <- $x20
	//DEBUG_VALUE: sbitmap_for_each_set:data <- $x19
	//DEBUG_VALUE: __sbitmap_for_each_set:data <- $x19
	//DEBUG_VALUE: ufs_tagset_bt_tags_for_each:iter_data <- $x19
	//DEBUG_VALUE: depth <- $w26
	//DEBUG_VALUE: __sbitmap_for_each_set:index <- $w23
	//DEBUG_VALUE: __sbitmap_for_each_set:start <- 0
	//DEBUG_LABEL: next
	.loc	106 275 22 is_stmt 1            // kernel/include/linux/sbitmap.h:275:22
	ldr	w9, [x20, #8]
.Ltmp189:
	.loc	106 247 23                      // kernel/include/linux/sbitmap.h:247:23
	ldr	w8, [x20]
.Ltmp190:
	.loc	106 275 7                       // kernel/include/linux/sbitmap.h:275:7
	add	w10, w23, #1                    // =1
.Ltmp191:
	//DEBUG_VALUE: __sbitmap_for_each_set:index <- $w10
	.loc	106 0 0 is_stmt 0               // kernel/include/linux/sbitmap.h:0:0
	add	w24, w26, w24
.Ltmp192:
	//DEBUG_VALUE: __sbitmap_for_each_set:nr <- 0
	//DEBUG_VALUE: __sbitmap_for_each_set:scanned <- $w24
	.loc	106 275 7                       // kernel/include/linux/sbitmap.h:275:7
	cmp	w10, w9
	csinc	w23, wzr, w23, hs
.Ltmp193:
	//DEBUG_VALUE: __sbitmap_for_each_set:index <- $w23
	.loc	106 247 2 is_stmt 1             // kernel/include/linux/sbitmap.h:247:2
	cmp	w8, w24
	b.ls	.LBB4_14
.Ltmp194:
.LBB4_4:                                // =>This Loop Header: Depth=1
                                        //     Child Loop BB4_7 Depth 2
	//DEBUG_VALUE: __sbitmap_for_each_set:sb <- $x20
	//DEBUG_VALUE: sbitmap_for_each_set:sb <- $x20
	//DEBUG_VALUE: ufs_tagset_bt_tags_for_each:bt <- $x20
	//DEBUG_VALUE: sbitmap_for_each_set:data <- $x19
	//DEBUG_VALUE: __sbitmap_for_each_set:data <- $x19
	//DEBUG_VALUE: ufs_tagset_bt_tags_for_each:iter_data <- $x19
	//DEBUG_VALUE: __sbitmap_for_each_set:nr <- 0
	//DEBUG_VALUE: __sbitmap_for_each_set:start <- 0
	//DEBUG_VALUE: __sbitmap_for_each_set:scanned <- $w24
	//DEBUG_VALUE: __sbitmap_for_each_set:index <- $w23
	.loc	106 249 24                      // kernel/include/linux/sbitmap.h:249:24
	ldr	x9, [x20, #16]
	sub	w8, w8, w24
.Ltmp195:
	//DEBUG_VALUE: __UNIQUE_ID___y230 <- $w8
	//DEBUG_VALUE: __UNIQUE_ID___x229 <- $w10
	umaddl	x9, w23, w25, x9
	ldr	w10, [x9]
.Ltmp196:
	//DEBUG_VALUE: __UNIQUE_ID___x229 <- $w10
	.loc	106 254 25                      // kernel/include/linux/sbitmap.h:254:25
	ldr	x11, [x9, #64]
	.loc	106 254 48 is_stmt 0            // kernel/include/linux/sbitmap.h:254:48
	ldr	x9, [x9, #128]
.Ltmp197:
	.loc	106 249 24 is_stmt 1            // kernel/include/linux/sbitmap.h:249:24
	cmp	w8, w10
	csel	w26, w10, w8, hi
.Ltmp198:
	//DEBUG_VALUE: depth <- $w26
	//DEBUG_VALUE: __sbitmap_for_each_set:scanned <- undef
	.loc	106 254 30                      // kernel/include/linux/sbitmap.h:254:30
	bics	x8, x11, x9
.Ltmp199:
	//DEBUG_VALUE: word <- $x8
	.loc	106 254 8 is_stmt 0             // kernel/include/linux/sbitmap.h:254:8
	str	x8, [sp, #8]
	.loc	106 255 7 is_stmt 1             // kernel/include/linux/sbitmap.h:255:7
	b.eq	.LBB4_3
.Ltmp200:
// %bb.5:                               //   in Loop: Header=BB4_4 Depth=1
	//DEBUG_VALUE: __sbitmap_for_each_set:sb <- $x20
	//DEBUG_VALUE: sbitmap_for_each_set:sb <- $x20
	//DEBUG_VALUE: ufs_tagset_bt_tags_for_each:bt <- $x20
	//DEBUG_VALUE: sbitmap_for_each_set:data <- $x19
	//DEBUG_VALUE: __sbitmap_for_each_set:data <- $x19
	//DEBUG_VALUE: ufs_tagset_bt_tags_for_each:iter_data <- $x19
	//DEBUG_VALUE: word <- $x8
	//DEBUG_VALUE: depth <- $w26
	//DEBUG_VALUE: __sbitmap_for_each_set:index <- $w23
	//DEBUG_VALUE: __sbitmap_for_each_set:nr <- 0
	//DEBUG_VALUE: __sbitmap_for_each_set:start <- 0
	//DEBUG_VALUE: __sbitmap_for_each_set:nr <- undef
	.loc	106 265 30                      // kernel/include/linux/sbitmap.h:265:30
	mov	w21, w26
.Ltmp201:
	//DEBUG_VALUE: word <- [DW_OP_plus_uconst 8, DW_OP_deref] $sp
	.loc	106 265 9 is_stmt 0             // kernel/include/linux/sbitmap.h:265:9
	add	x0, sp, #8                      // =8
	mov	x1, x21
	mov	x2, xzr
	b	.LBB4_7
.Ltmp202:
.LBB4_6:                                //   in Loop: Header=BB4_7 Depth=2
	//DEBUG_VALUE: __sbitmap_for_each_set:sb <- $x20
	//DEBUG_VALUE: sbitmap_for_each_set:sb <- $x20
	//DEBUG_VALUE: ufs_tagset_bt_tags_for_each:bt <- $x20
	//DEBUG_VALUE: sbitmap_for_each_set:data <- $x19
	//DEBUG_VALUE: __sbitmap_for_each_set:data <- $x19
	//DEBUG_VALUE: ufs_tagset_bt_tags_for_each:iter_data <- $x19
	//DEBUG_VALUE: depth <- $w26
	//DEBUG_VALUE: __sbitmap_for_each_set:index <- $w23
	//DEBUG_VALUE: __sbitmap_for_each_set:nr <- $w22
	//DEBUG_VALUE: word <- [DW_OP_plus_uconst 8, DW_OP_deref] $sp
	//DEBUG_VALUE: __sbitmap_for_each_set:start <- 0
	//DEBUG_VALUE: __sbitmap_for_each_set:nr <- [DW_OP_plus_uconst 1, DW_OP_stack_value] $w22
	.loc	106 271 6 is_stmt 1             // kernel/include/linux/sbitmap.h:271:6
	add	w2, w22, #1                     // =1
	//DEBUG_VALUE: word <- [DW_OP_plus_uconst 8, DW_OP_deref] $sp
.Ltmp203:
	//DEBUG_VALUE: __sbitmap_for_each_set:nr <- undef
	.loc	106 265 9                       // kernel/include/linux/sbitmap.h:265:9
	add	x0, sp, #8                      // =8
	mov	x1, x21
.Ltmp204:
.LBB4_7:                                //   Parent Loop BB4_4 Depth=1
                                        // =>  This Inner Loop Header: Depth=2
	//DEBUG_VALUE: __sbitmap_for_each_set:sb <- $x20
	//DEBUG_VALUE: sbitmap_for_each_set:sb <- $x20
	//DEBUG_VALUE: ufs_tagset_bt_tags_for_each:bt <- $x20
	//DEBUG_VALUE: sbitmap_for_each_set:data <- $x19
	//DEBUG_VALUE: __sbitmap_for_each_set:data <- $x19
	//DEBUG_VALUE: ufs_tagset_bt_tags_for_each:iter_data <- $x19
	//DEBUG_VALUE: depth <- $w26
	//DEBUG_VALUE: __sbitmap_for_each_set:index <- $w23
	//DEBUG_VALUE: word <- [DW_OP_plus_uconst 8, DW_OP_deref] $sp
	//DEBUG_VALUE: __sbitmap_for_each_set:start <- 0
	bl	find_next_bit
.Ltmp205:
	mov	x22, x0
.Ltmp206:
	//DEBUG_VALUE: __sbitmap_for_each_set:nr <- $w22
	.loc	106 266 8                       // kernel/include/linux/sbitmap.h:266:8
	cmp	w26, w22
	b.ls	.LBB4_3
.Ltmp207:
// %bb.8:                               //   in Loop: Header=BB4_7 Depth=2
	//DEBUG_VALUE: __sbitmap_for_each_set:sb <- $x20
	//DEBUG_VALUE: sbitmap_for_each_set:sb <- $x20
	//DEBUG_VALUE: ufs_tagset_bt_tags_for_each:bt <- $x20
	//DEBUG_VALUE: sbitmap_for_each_set:data <- $x19
	//DEBUG_VALUE: __sbitmap_for_each_set:data <- $x19
	//DEBUG_VALUE: ufs_tagset_bt_tags_for_each:iter_data <- $x19
	//DEBUG_VALUE: depth <- $w26
	//DEBUG_VALUE: __sbitmap_for_each_set:index <- $w23
	//DEBUG_VALUE: __sbitmap_for_each_set:nr <- $w22
	//DEBUG_VALUE: word <- [DW_OP_plus_uconst 8, DW_OP_deref] $sp
	//DEBUG_VALUE: __sbitmap_for_each_set:start <- 0
	.loc	106 268 30                      // kernel/include/linux/sbitmap.h:268:30
	ldr	w10, [x20, #4]
.Ltmp208:
	.loc	2 114 17                        // kernel/platform_source/basicplatform/block/mas_blk_mq_tag.c:114:17
	ldrb	w8, [x19, #24]
.Ltmp209:
	.loc	2 111 40                        // kernel/platform_source/basicplatform/block/mas_blk_mq_tag.c:111:40
	ldr	x9, [x19]
.Ltmp210:
	//DEBUG_VALUE: ufs_tagset_bt_tags_iter:rq <- 0
	//DEBUG_VALUE: ufs_tagset_bt_tags_iter:tags <- $x9
	.loc	106 268 23                      // kernel/include/linux/sbitmap.h:268:23
	lsl	w10, w23, w10
	.loc	106 268 37 is_stmt 0            // kernel/include/linux/sbitmap.h:268:37
	add	w10, w10, w22
.Ltmp211:
	//DEBUG_VALUE: ufs_tagset_bt_tags_iter:iter_data <- $x19
	//DEBUG_VALUE: ufs_tagset_bt_tags_iter:data <- $x19
	//DEBUG_VALUE: ufs_tagset_bt_tags_iter:bitmap <- $x20
	//DEBUG_VALUE: ufs_tagset_bt_tags_iter:bitnr <- $w10
	//DEBUG_VALUE: ufs_tagset_bt_tags_iter:tags <- $x9
	//DEBUG_VALUE: ufs_tagset_bt_tags_iter:rq <- 0
	.loc	2 114 6 is_stmt 1               // kernel/platform_source/basicplatform/block/mas_blk_mq_tag.c:114:6
	cbz	w8, .LBB4_10
.Ltmp212:
// %bb.9:                               //   in Loop: Header=BB4_7 Depth=2
	//DEBUG_VALUE: ufs_tagset_bt_tags_iter:bitmap <- $x20
	//DEBUG_VALUE: __sbitmap_for_each_set:sb <- $x20
	//DEBUG_VALUE: sbitmap_for_each_set:sb <- $x20
	//DEBUG_VALUE: ufs_tagset_bt_tags_for_each:bt <- $x20
	//DEBUG_VALUE: ufs_tagset_bt_tags_iter:data <- $x19
	//DEBUG_VALUE: ufs_tagset_bt_tags_iter:iter_data <- $x19
	//DEBUG_VALUE: sbitmap_for_each_set:data <- $x19
	//DEBUG_VALUE: __sbitmap_for_each_set:data <- $x19
	//DEBUG_VALUE: ufs_tagset_bt_tags_for_each:iter_data <- $x19
	//DEBUG_VALUE: ufs_tagset_bt_tags_iter:tags <- $x9
	//DEBUG_VALUE: depth <- $w26
	//DEBUG_VALUE: __sbitmap_for_each_set:index <- $w23
	//DEBUG_VALUE: __sbitmap_for_each_set:nr <- $w22
	//DEBUG_VALUE: ufs_tagset_bt_tags_iter:bitnr <- $w10
	//DEBUG_VALUE: word <- [DW_OP_plus_uconst 8, DW_OP_deref] $sp
	//DEBUG_VALUE: ufs_tagset_bt_tags_iter:rq <- 0
	//DEBUG_VALUE: __sbitmap_for_each_set:start <- 0
	.loc	2 115 18                        // kernel/platform_source/basicplatform/block/mas_blk_mq_tag.c:115:18
	ldr	w11, [x9, #16]
	.loc	2 115 9 is_stmt 0               // kernel/platform_source/basicplatform/block/mas_blk_mq_tag.c:115:9
	add	w10, w11, w10
.Ltmp213:
	//DEBUG_VALUE: ufs_tagset_bt_tags_iter:bitnr <- $w10
.LBB4_10:                               //   in Loop: Header=BB4_7 Depth=2
	//DEBUG_VALUE: ufs_tagset_bt_tags_iter:bitmap <- $x20
	//DEBUG_VALUE: __sbitmap_for_each_set:sb <- $x20
	//DEBUG_VALUE: sbitmap_for_each_set:sb <- $x20
	//DEBUG_VALUE: ufs_tagset_bt_tags_for_each:bt <- $x20
	//DEBUG_VALUE: ufs_tagset_bt_tags_iter:data <- $x19
	//DEBUG_VALUE: ufs_tagset_bt_tags_iter:iter_data <- $x19
	//DEBUG_VALUE: sbitmap_for_each_set:data <- $x19
	//DEBUG_VALUE: __sbitmap_for_each_set:data <- $x19
	//DEBUG_VALUE: ufs_tagset_bt_tags_for_each:iter_data <- $x19
	//DEBUG_VALUE: ufs_tagset_bt_tags_iter:tags <- $x9
	//DEBUG_VALUE: depth <- $w26
	//DEBUG_VALUE: __sbitmap_for_each_set:index <- $w23
	//DEBUG_VALUE: __sbitmap_for_each_set:nr <- $w22
	//DEBUG_VALUE: ufs_tagset_bt_tags_iter:bitnr <- $w10
	//DEBUG_VALUE: word <- [DW_OP_plus_uconst 8, DW_OP_deref] $sp
	//DEBUG_VALUE: ufs_tagset_bt_tags_iter:rq <- 0
	//DEBUG_VALUE: __sbitmap_for_each_set:start <- 0
	//DEBUG_VALUE: ufs_tagset_bt_tags_iter:bitnr <- $w10
	.loc	2 116 17 is_stmt 1              // kernel/platform_source/basicplatform/block/mas_blk_mq_tag.c:116:17
	ldrb	w11, [x19, #25]
.Ltmp214:
	.loc	2 116 6 is_stmt 0               // kernel/platform_source/basicplatform/block/mas_blk_mq_tag.c:116:6
	cbz	w11, .LBB4_12
.Ltmp215:
// %bb.11:                              //   in Loop: Header=BB4_7 Depth=2
	//DEBUG_VALUE: ufs_tagset_bt_tags_iter:bitmap <- $x20
	//DEBUG_VALUE: __sbitmap_for_each_set:sb <- $x20
	//DEBUG_VALUE: sbitmap_for_each_set:sb <- $x20
	//DEBUG_VALUE: ufs_tagset_bt_tags_for_each:bt <- $x20
	//DEBUG_VALUE: ufs_tagset_bt_tags_iter:data <- $x19
	//DEBUG_VALUE: ufs_tagset_bt_tags_iter:iter_data <- $x19
	//DEBUG_VALUE: sbitmap_for_each_set:data <- $x19
	//DEBUG_VALUE: __sbitmap_for_each_set:data <- $x19
	//DEBUG_VALUE: ufs_tagset_bt_tags_for_each:iter_data <- $x19
	//DEBUG_VALUE: ufs_tagset_bt_tags_iter:tags <- $x9
	//DEBUG_VALUE: depth <- $w26
	//DEBUG_VALUE: __sbitmap_for_each_set:index <- $w23
	//DEBUG_VALUE: __sbitmap_for_each_set:nr <- $w22
	//DEBUG_VALUE: ufs_tagset_bt_tags_iter:bitnr <- $w10
	//DEBUG_VALUE: word <- [DW_OP_plus_uconst 8, DW_OP_deref] $sp
	//DEBUG_VALUE: ufs_tagset_bt_tags_iter:rq <- 0
	//DEBUG_VALUE: __sbitmap_for_each_set:start <- 0
	.loc	2 117 18 is_stmt 1              // kernel/platform_source/basicplatform/block/mas_blk_mq_tag.c:117:18
	ldr	w11, [x9, #20]
	.loc	2 117 9 is_stmt 0               // kernel/platform_source/basicplatform/block/mas_blk_mq_tag.c:117:9
	add	w10, w11, w10
.Ltmp216:
	//DEBUG_VALUE: ufs_tagset_bt_tags_iter:bitnr <- $w10
.LBB4_12:                               //   in Loop: Header=BB4_7 Depth=2
	//DEBUG_VALUE: ufs_tagset_bt_tags_iter:bitmap <- $x20
	//DEBUG_VALUE: __sbitmap_for_each_set:sb <- $x20
	//DEBUG_VALUE: sbitmap_for_each_set:sb <- $x20
	//DEBUG_VALUE: ufs_tagset_bt_tags_for_each:bt <- $x20
	//DEBUG_VALUE: ufs_tagset_bt_tags_iter:data <- $x19
	//DEBUG_VALUE: ufs_tagset_bt_tags_iter:iter_data <- $x19
	//DEBUG_VALUE: sbitmap_for_each_set:data <- $x19
	//DEBUG_VALUE: __sbitmap_for_each_set:data <- $x19
	//DEBUG_VALUE: ufs_tagset_bt_tags_for_each:iter_data <- $x19
	//DEBUG_VALUE: ufs_tagset_bt_tags_iter:tags <- $x9
	//DEBUG_VALUE: depth <- $w26
	//DEBUG_VALUE: __sbitmap_for_each_set:index <- $w23
	//DEBUG_VALUE: __sbitmap_for_each_set:nr <- $w22
	//DEBUG_VALUE: ufs_tagset_bt_tags_iter:bitnr <- $w10
	//DEBUG_VALUE: word <- [DW_OP_plus_uconst 8, DW_OP_deref] $sp
	//DEBUG_VALUE: ufs_tagset_bt_tags_iter:rq <- 0
	//DEBUG_VALUE: __sbitmap_for_each_set:start <- 0
	//DEBUG_VALUE: ufs_tagset_bt_tags_iter:rq <- undef
	//DEBUG_VALUE: ufs_tagset_bt_tags_iter:bitnr <- $w10
	.loc	2 121 17 is_stmt 1              // kernel/platform_source/basicplatform/block/mas_blk_mq_tag.c:121:17
	ldr	x11, [x19, #8]
.Ltmp217:
	.loc	2 121 6 is_stmt 0               // kernel/platform_source/basicplatform/block/mas_blk_mq_tag.c:121:6
	cbz	x11, .LBB4_6
.Ltmp218:
// %bb.13:                              //   in Loop: Header=BB4_7 Depth=2
	//DEBUG_VALUE: ufs_tagset_bt_tags_iter:bitmap <- $x20
	//DEBUG_VALUE: __sbitmap_for_each_set:sb <- $x20
	//DEBUG_VALUE: sbitmap_for_each_set:sb <- $x20
	//DEBUG_VALUE: ufs_tagset_bt_tags_for_each:bt <- $x20
	//DEBUG_VALUE: ufs_tagset_bt_tags_iter:data <- $x19
	//DEBUG_VALUE: ufs_tagset_bt_tags_iter:iter_data <- $x19
	//DEBUG_VALUE: sbitmap_for_each_set:data <- $x19
	//DEBUG_VALUE: __sbitmap_for_each_set:data <- $x19
	//DEBUG_VALUE: ufs_tagset_bt_tags_for_each:iter_data <- $x19
	//DEBUG_VALUE: ufs_tagset_bt_tags_iter:tags <- $x9
	//DEBUG_VALUE: depth <- $w26
	//DEBUG_VALUE: __sbitmap_for_each_set:index <- $w23
	//DEBUG_VALUE: __sbitmap_for_each_set:nr <- $w22
	//DEBUG_VALUE: ufs_tagset_bt_tags_iter:bitnr <- $w10
	//DEBUG_VALUE: word <- [DW_OP_plus_uconst 8, DW_OP_deref] $sp
	//DEBUG_VALUE: __sbitmap_for_each_set:start <- 0
	.loc	2 119 13 is_stmt 1              // kernel/platform_source/basicplatform/block/mas_blk_mq_tag.c:119:13
	ldr	x9, [x9, #248]
.Ltmp219:
	.loc	2 122 32                        // kernel/platform_source/basicplatform/block/mas_blk_mq_tag.c:122:32
	ldr	x1, [x19, #16]
	.loc	2 122 49 is_stmt 0              // kernel/platform_source/basicplatform/block/mas_blk_mq_tag.c:122:49
	cmp	w8, #0                          // =0
	cset	w2, ne
.Ltmp220:
	.loc	2 119 7 is_stmt 1               // kernel/platform_source/basicplatform/block/mas_blk_mq_tag.c:119:7
	ldr	x0, [x9, w10, uxtw #3]
.Ltmp221:
	//DEBUG_VALUE: ufs_tagset_bt_tags_iter:rq <- $x0
	.loc	2 122 3                         // kernel/platform_source/basicplatform/block/mas_blk_mq_tag.c:122:3
	blr	x11
.Ltmp222:
	.loc	2 0 3 is_stmt 0                 // kernel/platform_source/basicplatform/block/mas_blk_mq_tag.c:0:3
	b	.LBB4_6
.Ltmp223:
.LBB4_14:
	.loc	2 132 1 is_stmt 1               // kernel/platform_source/basicplatform/block/mas_blk_mq_tag.c:132:1
	ldp	x20, x19, [sp, #80]             // 16-byte Folded Reload
	ldp	x22, x21, [sp, #64]             // 16-byte Folded Reload
	ldp	x24, x23, [sp, #48]             // 16-byte Folded Reload
	ldp	x26, x25, [sp, #32]             // 16-byte Folded Reload
	ldp	x29, x30, [sp, #16]             // 16-byte Folded Reload
	add	sp, sp, #96                     // =96
	ret
.Ltmp224:
.Lfunc_end4:
	.size	ufs_tagset_bt_tags_for_each, .Lfunc_end4-ufs_tagset_bt_tags_for_each
	.cfi_endproc
                                        // -- End function
	.globl	ufs_tagset_free_tags            // -- Begin function ufs_tagset_free_tags
	.p2align	2
	.type	ufs_tagset_free_tags,@function
ufs_tagset_free_tags:                   // @ufs_tagset_free_tags
.Lfunc_begin5:
	.loc	2 524 0                         // kernel/platform_source/basicplatform/block/mas_blk_mq_tag.c:524:0
	.cfi_startproc
// %bb.0:
	//DEBUG_VALUE: ufs_tagset_free_tags:tags <- $x0
	stp	x29, x30, [sp, #-32]!           // 16-byte Folded Spill
	stp	x20, x19, [sp, #16]             // 16-byte Folded Spill
	mov	x29, sp
	.cfi_def_cfa w29, 32
	.cfi_offset w19, -8
	.cfi_offset w20, -16
	.cfi_offset w30, -24
	.cfi_offset w29, -32
.Ltmp225:
	.loc	2 526 27 prologue_end           // kernel/platform_source/basicplatform/block/mas_blk_mq_tag.c:526:27
	ldr	x20, [x0, #40]
.Ltmp226:
	//DEBUG_VALUE: sbitmap_queue_free:sbq <- $x20
	.loc	2 0 27 is_stmt 0                // kernel/platform_source/basicplatform/block/mas_blk_mq_tag.c:0:27
	mov	x19, x0
.Ltmp227:
	//DEBUG_VALUE: ufs_tagset_free_tags:tags <- $x19
	//DEBUG_VALUE: ufs_tagset_free_tags:tags <- $x19
	.loc	106 376 13 is_stmt 1            // kernel/include/linux/sbitmap.h:376:13
	ldr	x0, [x20, #40]
	.loc	106 376 2 is_stmt 0             // kernel/include/linux/sbitmap.h:376:2
	bl	kfree
.Ltmp228:
	.loc	106 377 19 is_stmt 1            // kernel/include/linux/sbitmap.h:377:19
	ldr	x0, [x20, #24]
	.loc	106 377 2 is_stmt 0             // kernel/include/linux/sbitmap.h:377:2
	bl	free_percpu
.Ltmp229:
	//DEBUG_VALUE: sbitmap_free:sb <- $x20
	.loc	106 164 12 is_stmt 1            // kernel/include/linux/sbitmap.h:164:12
	ldr	x0, [x20, #16]
	.loc	106 164 2 is_stmt 0             // kernel/include/linux/sbitmap.h:164:2
	bl	kfree
.Ltmp230:
	.loc	106 165 10 is_stmt 1            // kernel/include/linux/sbitmap.h:165:10
	str	xzr, [x20, #16]
.Ltmp231:
	.loc	2 527 27                        // kernel/platform_source/basicplatform/block/mas_blk_mq_tag.c:527:27
	ldr	x20, [x19, #48]
.Ltmp232:
	//DEBUG_VALUE: sbitmap_queue_free:sbq <- $x20
	.loc	106 376 13                      // kernel/include/linux/sbitmap.h:376:13
	ldr	x0, [x20, #40]
	.loc	106 376 2 is_stmt 0             // kernel/include/linux/sbitmap.h:376:2
	bl	kfree
.Ltmp233:
	.loc	106 377 19 is_stmt 1            // kernel/include/linux/sbitmap.h:377:19
	ldr	x0, [x20, #24]
	.loc	106 377 2 is_stmt 0             // kernel/include/linux/sbitmap.h:377:2
	bl	free_percpu
.Ltmp234:
	//DEBUG_VALUE: sbitmap_free:sb <- $x20
	.loc	106 164 12 is_stmt 1            // kernel/include/linux/sbitmap.h:164:12
	ldr	x0, [x20, #16]
	.loc	106 164 2 is_stmt 0             // kernel/include/linux/sbitmap.h:164:2
	bl	kfree
.Ltmp235:
	.loc	106 165 10 is_stmt 1            // kernel/include/linux/sbitmap.h:165:10
	str	xzr, [x20, #16]
.Ltmp236:
	//DEBUG_VALUE: sbitmap_queue_free:sbq <- [DW_OP_plus_uconst 56, DW_OP_stack_value] $x19
	.loc	106 376 13                      // kernel/include/linux/sbitmap.h:376:13
	ldr	x0, [x19, #96]
	.loc	106 376 2 is_stmt 0             // kernel/include/linux/sbitmap.h:376:2
	bl	kfree
.Ltmp237:
	.loc	106 377 19 is_stmt 1            // kernel/include/linux/sbitmap.h:377:19
	ldr	x0, [x19, #80]
	.loc	106 377 2 is_stmt 0             // kernel/include/linux/sbitmap.h:377:2
	bl	free_percpu
.Ltmp238:
	//DEBUG_VALUE: sbitmap_free:sb <- [DW_OP_plus_uconst 56, DW_OP_stack_value] $x19
	.loc	106 164 12 is_stmt 1            // kernel/include/linux/sbitmap.h:164:12
	ldr	x0, [x19, #72]
	.loc	106 164 2 is_stmt 0             // kernel/include/linux/sbitmap.h:164:2
	bl	kfree
.Ltmp239:
	.loc	2 533 2 is_stmt 1               // kernel/platform_source/basicplatform/block/mas_blk_mq_tag.c:533:2
	mov	x0, x19
.Ltmp240:
	.loc	106 165 10                      // kernel/include/linux/sbitmap.h:165:10
	str	xzr, [x19, #72]
.Ltmp241:
	.loc	2 533 2                         // kernel/platform_source/basicplatform/block/mas_blk_mq_tag.c:533:2
	bl	kfree
.Ltmp242:
	.loc	2 534 1                         // kernel/platform_source/basicplatform/block/mas_blk_mq_tag.c:534:1
	ldp	x20, x19, [sp, #16]             // 16-byte Folded Reload
.Ltmp243:
	//DEBUG_VALUE: ufs_tagset_free_tags:tags <- [DW_OP_LLVM_entry_value 1] $x0
	ldp	x29, x30, [sp], #32             // 16-byte Folded Reload
	ret
.Ltmp244:
.Lfunc_end5:
	.size	ufs_tagset_free_tags, .Lfunc_end5-ufs_tagset_free_tags
	.cfi_endproc
	.file	154 "/mnt/disk/jenkins/ci/workspace/chipset_pipeline_release/opensource/component_code/vendor/huawei/extra/build/build_script/kirin_kernel_release" "kernel/include/linux/percpu.h"
                                        // -- End function
	.globl	ufs_mq_tag_wakeup_all           // -- Begin function ufs_mq_tag_wakeup_all
	.p2align	2
	.type	ufs_mq_tag_wakeup_all,@function
ufs_mq_tag_wakeup_all:                  // @ufs_mq_tag_wakeup_all
.Lfunc_begin6:
	.loc	2 537 0                         // kernel/platform_source/basicplatform/block/mas_blk_mq_tag.c:537:0
	.cfi_startproc
// %bb.0:
	//DEBUG_VALUE: ufs_mq_tag_wakeup_all:tags <- $x0
	stp	x29, x30, [sp, #-32]!           // 16-byte Folded Spill
	str	x19, [sp, #16]                  // 8-byte Folded Spill
	mov	x29, sp
	.cfi_def_cfa w29, 32
	.cfi_offset w19, -16
	.cfi_offset w30, -24
	.cfi_offset w29, -32
	mov	x19, x0
.Ltmp245:
	//DEBUG_VALUE: ufs_mq_tag_wakeup_all:tags <- $x19
	.loc	2 539 31 prologue_end           // kernel/platform_source/basicplatform/block/mas_blk_mq_tag.c:539:31
	ldr	x0, [x0, #40]
	.loc	2 539 2 is_stmt 0               // kernel/platform_source/basicplatform/block/mas_blk_mq_tag.c:539:2
	bl	sbitmap_queue_wake_all
.Ltmp246:
	.loc	2 540 31 is_stmt 1              // kernel/platform_source/basicplatform/block/mas_blk_mq_tag.c:540:31
	ldr	x0, [x19, #48]
	.loc	2 540 2 is_stmt 0               // kernel/platform_source/basicplatform/block/mas_blk_mq_tag.c:540:2
	bl	sbitmap_queue_wake_all
.Ltmp247:
	.loc	2 545 32 is_stmt 1              // kernel/platform_source/basicplatform/block/mas_blk_mq_tag.c:545:32
	add	x0, x19, #56                    // =56
	.loc	2 545 2 is_stmt 0               // kernel/platform_source/basicplatform/block/mas_blk_mq_tag.c:545:2
	bl	sbitmap_queue_wake_all
.Ltmp248:
	.loc	2 546 2 is_stmt 1               // kernel/platform_source/basicplatform/block/mas_blk_mq_tag.c:546:2
	ldr	x19, [sp, #16]                  // 8-byte Folded Reload
.Ltmp249:
	//DEBUG_VALUE: ufs_mq_tag_wakeup_all:tags <- [DW_OP_LLVM_entry_value 1] $x0
	mov	w0, wzr
	ldp	x29, x30, [sp], #32             // 16-byte Folded Reload
	ret
.Ltmp250:
.Lfunc_end6:
	.size	ufs_mq_tag_wakeup_all, .Lfunc_end6-ufs_mq_tag_wakeup_all
	.cfi_endproc
                                        // -- End function
	.globl	ufs_tagset_init_tags            // -- Begin function ufs_tagset_init_tags
	.p2align	2
	.type	ufs_tagset_init_tags,@function
ufs_tagset_init_tags:                   // @ufs_tagset_init_tags
.Lfunc_begin7:
	.loc	2 552 0                         // kernel/platform_source/basicplatform/block/mas_blk_mq_tag.c:552:0
	.cfi_startproc
// %bb.0:
	//DEBUG_VALUE: ufs_tagset_init_tags:total_tags <- $w0
	//DEBUG_VALUE: ufs_tagset_init_tags:reserved_tags <- $w1
	//DEBUG_VALUE: ufs_tagset_init_tags:high_prio_tags <- $w2
	//DEBUG_VALUE: ufs_tagset_init_tags:node <- $w3
	//DEBUG_VALUE: ufs_tagset_init_tags:alloc_policy <- $w4
	stp	x29, x30, [sp, #-64]!           // 16-byte Folded Spill
	stp	x24, x23, [sp, #16]             // 16-byte Folded Spill
	stp	x22, x21, [sp, #32]             // 16-byte Folded Spill
	stp	x20, x19, [sp, #48]             // 16-byte Folded Spill
	mov	x29, sp
	.cfi_def_cfa w29, 64
	.cfi_offset w19, -8
	.cfi_offset w20, -16
	.cfi_offset w21, -24
	.cfi_offset w22, -32
	.cfi_offset w23, -40
	.cfi_offset w24, -48
	.cfi_offset w30, -56
	.cfi_offset w29, -64
.Ltmp251:
	.loc	24 584 5 prologue_end           // kernel/include/linux/slab.h:584:5
	adrp	x8, kmalloc_caches+72
	ldr	x8, [x8, :lo12:kmalloc_caches+72]
.Ltmp252:
	//DEBUG_VALUE: kmem_cache_alloc_node_trace:node <- undef
	.loc	24 0 5 is_stmt 0                // kernel/include/linux/slab.h:0:5
	mov	w22, w2
.Ltmp253:
	//DEBUG_VALUE: ufs_tagset_init_tags:high_prio_tags <- $w22
	mov	w23, w1
.Ltmp254:
	//DEBUG_VALUE: ufs_tagset_init_tags:reserved_tags <- $w23
	//DEBUG_VALUE: ufs_tagset_init_tags:alloc_policy <- $w21
	//DEBUG_VALUE: ufs_tagset_init_tags:node <- $w20
	//DEBUG_VALUE: ufs_tagset_init_tags:high_prio_tags <- $w22
	//DEBUG_VALUE: ufs_tagset_init_tags:reserved_tags <- $w23
	mov	w24, w0
.Ltmp255:
	//DEBUG_VALUE: ufs_tagset_init_tags:total_tags <- $w24
	//DEBUG_VALUE: i <- 9
	//DEBUG_VALUE: kmalloc_node:node <- undef
	//DEBUG_VALUE: kmalloc_node:flags <- 3520
	//DEBUG_VALUE: kmalloc_node:size <- 304
	//DEBUG_VALUE: kzalloc_node:node <- undef
	//DEBUG_VALUE: kzalloc_node:flags <- 3264
	//DEBUG_VALUE: kzalloc_node:size <- 304
	//DEBUG_VALUE: ufs_tagset_init_tags:tags <- 0
	//DEBUG_VALUE: kmem_cache_alloc_node_trace:size <- 304
	//DEBUG_VALUE: kmem_cache_alloc_node_trace:gfpflags <- 3520
	//DEBUG_VALUE: kmem_cache_alloc_node_trace:s <- $x8
	//DEBUG_VALUE: ufs_tagset_init_tags:total_tags <- $w24
	.loc	24 453 9 is_stmt 1              // kernel/include/linux/slab.h:453:9
	mov	w1, #3520
	mov	w2, #304
	mov	x0, x8
	mov	w21, w4
.Ltmp256:
	.loc	24 0 9 is_stmt 0                // kernel/include/linux/slab.h:0:9
	mov	w20, w3
.Ltmp257:
	.loc	24 453 9                        // kernel/include/linux/slab.h:453:9
	bl	kmem_cache_alloc_trace
.Ltmp258:
	mov	x19, x0
.Ltmp259:
	//DEBUG_VALUE: ufs_tagset_init_tags:tags <- $x19
	.loc	2 557 6 is_stmt 1               // kernel/platform_source/basicplatform/block/mas_blk_mq_tag.c:557:6
	cbnz	x0, .LBB7_2
.Ltmp260:
.LBB7_1:
	.loc	2 573 1                         // kernel/platform_source/basicplatform/block/mas_blk_mq_tag.c:573:1
	mov	x0, x19
	ldp	x20, x19, [sp, #48]             // 16-byte Folded Reload
	ldp	x22, x21, [sp, #32]             // 16-byte Folded Reload
	ldp	x24, x23, [sp, #16]             // 16-byte Folded Reload
	ldp	x29, x30, [sp], #64             // 16-byte Folded Reload
	ret
.LBB7_2:
.Ltmp261:
	//DEBUG_VALUE: ufs_tagset_init_tags:tags <- $x19
	//DEBUG_VALUE: ufs_tagset_init_tags:total_tags <- $w24
	//DEBUG_VALUE: ufs_tagset_init_tags:reserved_tags <- $w23
	//DEBUG_VALUE: ufs_tagset_init_tags:high_prio_tags <- $w22
	.loc	2 564 2                         // kernel/platform_source/basicplatform/block/mas_blk_mq_tag.c:564:2
	adrp	x1, .L.str
	adrp	x2, ufs_tagset_init_tags.__key
	add	x0, x19, #280                   // =280
.Ltmp262:
	//DEBUG_VALUE: spinlock_check:lock <- $x0
	add	x1, x1, :lo12:.L.str
	add	x2, x2, :lo12:ufs_tagset_init_tags.__key
	mov	w3, #2
.Ltmp263:
	.loc	2 560 16                        // kernel/platform_source/basicplatform/block/mas_blk_mq_tag.c:560:16
	stp	w24, w23, [x19]
	.loc	2 562 26                        // kernel/platform_source/basicplatform/block/mas_blk_mq_tag.c:562:26
	str	w22, [x19, #8]
.Ltmp264:
	.loc	2 564 2                         // kernel/platform_source/basicplatform/block/mas_blk_mq_tag.c:564:2
	bl	__raw_spin_lock_init
.Ltmp265:
	//DEBUG_VALUE: ufs_tagset_init_bitmap_tags:alloc_policy <- $w21
	//DEBUG_VALUE: ufs_tagset_init_bitmap_tags:node <- $w20
	//DEBUG_VALUE: ufs_tagset_init_bitmap_tags:tags <- $x19
	.loc	2 434 29                        // kernel/platform_source/basicplatform/block/mas_blk_mq_tag.c:434:29
	ldp	w8, w2, [x19]
	.loc	2 435 15                        // kernel/platform_source/basicplatform/block/mas_blk_mq_tag.c:435:15
	ldr	w3, [x19, #8]
	.loc	2 438 2                         // kernel/platform_source/basicplatform/block/mas_blk_mq_tag.c:438:2
	adrp	x0, .L.str.2
	.loc	2 436 34                        // kernel/platform_source/basicplatform/block/mas_blk_mq_tag.c:436:34
	cmp	w21, #1                         // =1
	.loc	2 434 37                        // kernel/platform_source/basicplatform/block/mas_blk_mq_tag.c:434:37
	sub	w8, w8, w2
	.loc	2 434 62 is_stmt 0              // kernel/platform_source/basicplatform/block/mas_blk_mq_tag.c:434:62
	sub	w22, w8, w3
.Ltmp266:
	//DEBUG_VALUE: ufs_tagset_init_bitmap_tags:depth <- $w22
	.loc	2 438 2 is_stmt 1               // kernel/platform_source/basicplatform/block/mas_blk_mq_tag.c:438:2
	add	x0, x0, :lo12:.L.str.2
	mov	w1, w22
	.loc	2 436 34                        // kernel/platform_source/basicplatform/block/mas_blk_mq_tag.c:436:34
	cset	w24, eq
.Ltmp267:
	//DEBUG_VALUE: ufs_tagset_init_bitmap_tags:round_robin <- [DW_OP_LLVM_convert 1 7, DW_OP_LLVM_convert 8 7, DW_OP_stack_value] $w24
	.loc	2 438 2                         // kernel/platform_source/basicplatform/block/mas_blk_mq_tag.c:438:2
	bl	printk
.Ltmp268:
	.loc	2 442 37                        // kernel/platform_source/basicplatform/block/mas_blk_mq_tag.c:442:37
	add	x23, x19, #120                  // =120
.Ltmp269:
	.loc	2 442 6 is_stmt 0               // kernel/platform_source/basicplatform/block/mas_blk_mq_tag.c:442:6
	mov	w2, #-1
	mov	w4, #3264
	mov	x0, x23
	mov	w1, w22
	mov	w3, w24
	mov	w5, w20
	bl	sbitmap_queue_init_node
.Ltmp270:
	.loc	2 442 6                         // kernel/platform_source/basicplatform/block/mas_blk_mq_tag.c:442:6
	cbnz	w0, .LBB7_8
.Ltmp271:
// %bb.3:
	//DEBUG_VALUE: ufs_tagset_init_bitmap_tags:tags <- $x19
	//DEBUG_VALUE: ufs_tagset_init_tags:tags <- $x19
	//DEBUG_VALUE: ufs_tagset_init_bitmap_tags:round_robin <- [DW_OP_LLVM_convert 1 7, DW_OP_LLVM_convert 8 7, DW_OP_stack_value] $w24
	//DEBUG_VALUE: ufs_tagset_init_bitmap_tags:depth <- $w22
	//DEBUG_VALUE: ufs_tagset_init_bitmap_tags:alloc_policy <- $w21
	//DEBUG_VALUE: ufs_tagset_init_bitmap_tags:node <- $w20
	.loc	2 452 13 is_stmt 1              // kernel/platform_source/basicplatform/block/mas_blk_mq_tag.c:452:13
	ldr	w1, [x19, #4]
.Ltmp272:
	.loc	2 436 34                        // kernel/platform_source/basicplatform/block/mas_blk_mq_tag.c:436:34
	cmp	w21, #1                         // =1
.Ltmp273:
	.loc	2 451 37                        // kernel/platform_source/basicplatform/block/mas_blk_mq_tag.c:451:37
	add	x24, x19, #184                  // =184
.Ltmp274:
	.loc	2 436 34                        // kernel/platform_source/basicplatform/block/mas_blk_mq_tag.c:436:34
	cset	w3, eq
.Ltmp275:
	.loc	2 451 6                         // kernel/platform_source/basicplatform/block/mas_blk_mq_tag.c:451:6
	mov	w2, #-1
	mov	w4, #3264
	mov	x0, x24
	mov	w5, w20
	bl	sbitmap_queue_init_node
.Ltmp276:
	.loc	2 451 6 is_stmt 0               // kernel/platform_source/basicplatform/block/mas_blk_mq_tag.c:451:6
	cbnz	w0, .LBB7_7
.Ltmp277:
// %bb.4:
	//DEBUG_VALUE: ufs_tagset_init_bitmap_tags:tags <- $x19
	//DEBUG_VALUE: ufs_tagset_init_tags:tags <- $x19
	//DEBUG_VALUE: ufs_tagset_init_bitmap_tags:depth <- $w22
	//DEBUG_VALUE: ufs_tagset_init_bitmap_tags:alloc_policy <- $w21
	//DEBUG_VALUE: ufs_tagset_init_bitmap_tags:node <- $w20
	.loc	2 460 13 is_stmt 1              // kernel/platform_source/basicplatform/block/mas_blk_mq_tag.c:460:13
	ldr	w1, [x19, #8]
.Ltmp278:
	.loc	2 436 34                        // kernel/platform_source/basicplatform/block/mas_blk_mq_tag.c:436:34
	cmp	w21, #1                         // =1
	cset	w3, eq
.Ltmp279:
	.loc	2 459 37                        // kernel/platform_source/basicplatform/block/mas_blk_mq_tag.c:459:37
	add	x0, x19, #56                    // =56
	.loc	2 459 6 is_stmt 0               // kernel/platform_source/basicplatform/block/mas_blk_mq_tag.c:459:6
	mov	w2, #-1
	mov	w4, #3264
	mov	w5, w20
	bl	sbitmap_queue_init_node
.Ltmp280:
	.loc	2 459 6                         // kernel/platform_source/basicplatform/block/mas_blk_mq_tag.c:459:6
	cbnz	w0, .LBB7_6
.Ltmp281:
// %bb.5:
	//DEBUG_VALUE: ufs_tagset_init_bitmap_tags:tags <- $x19
	//DEBUG_VALUE: ufs_tagset_init_tags:tags <- $x19
	//DEBUG_VALUE: ufs_tagset_init_bitmap_tags:depth <- $w22
	//DEBUG_VALUE: ufs_tagset_init_bitmap_tags:alloc_policy <- $w21
	//DEBUG_VALUE: ufs_tagset_init_bitmap_tags:node <- $w20
	.loc	2 469 41 is_stmt 1              // kernel/platform_source/basicplatform/block/mas_blk_mq_tag.c:469:41
	ldr	w8, [x19, #4]
	.loc	2 464 20                        // kernel/platform_source/basicplatform/block/mas_blk_mq_tag.c:464:20
	stp	x23, x24, [x19, #40]
	.loc	2 467 23                        // kernel/platform_source/basicplatform/block/mas_blk_mq_tag.c:467:23
	stp	wzr, w22, [x19, #12]
	.loc	2 469 58                        // kernel/platform_source/basicplatform/block/mas_blk_mq_tag.c:469:58
	add	w8, w8, w22
	.loc	2 469 33 is_stmt 0              // kernel/platform_source/basicplatform/block/mas_blk_mq_tag.c:469:33
	str	w8, [x19, #20]
.Ltmp282:
	//DEBUG_VALUE: ufs_tagset_init_tags:ret <- -12
	.loc	2 0 33                          // kernel/platform_source/basicplatform/block/mas_blk_mq_tag.c:0:33
	b	.LBB7_1
.Ltmp283:
.LBB7_6:
	//DEBUG_VALUE: ufs_tagset_init_bitmap_tags:tags <- $x19
	//DEBUG_VALUE: ufs_tagset_init_tags:tags <- $x19
	//DEBUG_VALUE: ufs_tagset_init_bitmap_tags:depth <- $w22
	//DEBUG_VALUE: ufs_tagset_init_bitmap_tags:alloc_policy <- $w21
	//DEBUG_VALUE: ufs_tagset_init_bitmap_tags:node <- $w20
	//DEBUG_LABEL: ufs_tagset_init_bitmap_tags:enomem2
	.loc	2 474 27 is_stmt 1              // kernel/platform_source/basicplatform/block/mas_blk_mq_tag.c:474:27
	ldr	x20, [x19, #48]
.Ltmp284:
	//DEBUG_VALUE: sbitmap_queue_free:sbq <- $x20
	.loc	106 376 13                      // kernel/include/linux/sbitmap.h:376:13
	ldr	x0, [x20, #40]
	.loc	106 376 2 is_stmt 0             // kernel/include/linux/sbitmap.h:376:2
	bl	kfree
.Ltmp285:
	.loc	106 377 19 is_stmt 1            // kernel/include/linux/sbitmap.h:377:19
	ldr	x0, [x20, #24]
	.loc	106 377 2 is_stmt 0             // kernel/include/linux/sbitmap.h:377:2
	bl	free_percpu
.Ltmp286:
	//DEBUG_VALUE: sbitmap_free:sb <- $x20
	.loc	106 164 12 is_stmt 1            // kernel/include/linux/sbitmap.h:164:12
	ldr	x0, [x20, #16]
	.loc	106 164 2 is_stmt 0             // kernel/include/linux/sbitmap.h:164:2
	bl	kfree
.Ltmp287:
	.loc	106 165 10 is_stmt 1            // kernel/include/linux/sbitmap.h:165:10
	str	xzr, [x20, #16]
.Ltmp288:
.LBB7_7:
	//DEBUG_VALUE: ufs_tagset_init_bitmap_tags:tags <- $x19
	//DEBUG_VALUE: ufs_tagset_init_tags:tags <- $x19
	//DEBUG_VALUE: ufs_tagset_init_bitmap_tags:depth <- $w22
	//DEBUG_VALUE: ufs_tagset_init_bitmap_tags:alloc_policy <- $w21
	//DEBUG_LABEL: ufs_tagset_init_bitmap_tags:enomem1
	.loc	106 376 13                      // kernel/include/linux/sbitmap.h:376:13
	ldr	x0, [x19, #160]
	.loc	106 376 2 is_stmt 0             // kernel/include/linux/sbitmap.h:376:2
	bl	kfree
.Ltmp289:
	.loc	106 377 19 is_stmt 1            // kernel/include/linux/sbitmap.h:377:19
	ldr	x0, [x19, #144]
	.loc	106 377 2 is_stmt 0             // kernel/include/linux/sbitmap.h:377:2
	bl	free_percpu
.Ltmp290:
	.loc	106 164 12 is_stmt 1            // kernel/include/linux/sbitmap.h:164:12
	ldr	x0, [x19, #136]
	.loc	106 164 2 is_stmt 0             // kernel/include/linux/sbitmap.h:164:2
	bl	kfree
.Ltmp291:
	.loc	106 165 10 is_stmt 1            // kernel/include/linux/sbitmap.h:165:10
	str	xzr, [x19, #136]
.Ltmp292:
	//DEBUG_VALUE: sbitmap_free:sb <- undef
	//DEBUG_VALUE: sbitmap_queue_free:sbq <- undef
.LBB7_8:
	//DEBUG_VALUE: ufs_tagset_init_bitmap_tags:tags <- $x19
	//DEBUG_VALUE: ufs_tagset_init_tags:tags <- $x19
	//DEBUG_VALUE: ufs_tagset_init_bitmap_tags:depth <- $w22
	//DEBUG_VALUE: ufs_tagset_init_bitmap_tags:alloc_policy <- $w21
	//DEBUG_LABEL: ufs_tagset_init_bitmap_tags:enomem
	.loc	2 485 2                         // kernel/platform_source/basicplatform/block/mas_blk_mq_tag.c:485:2
	adrp	x0, .L.str.3
	adrp	x1, .L__func__.ufs_tagset_init_bitmap_tags
	add	x0, x0, :lo12:.L.str.3
	add	x1, x1, :lo12:.L__func__.ufs_tagset_init_bitmap_tags
	bl	printk
.Ltmp293:
	//DEBUG_VALUE: ufs_tagset_init_tags:ret <- -12
	.loc	2 567 3                         // kernel/platform_source/basicplatform/block/mas_blk_mq_tag.c:567:3
	adrp	x0, .L.str.1
	add	x0, x0, :lo12:.L.str.1
	bl	printk
.Ltmp294:
	.loc	2 568 3                         // kernel/platform_source/basicplatform/block/mas_blk_mq_tag.c:568:3
	mov	x0, x19
	bl	kfree
.Ltmp295:
	.loc	2 0 0 is_stmt 0                 // kernel/platform_source/basicplatform/block/mas_blk_mq_tag.c:0:0
	mov	x19, xzr
.Ltmp296:
	b	.LBB7_1
.Ltmp297:
.Lfunc_end7:
	.size	ufs_tagset_init_tags, .Lfunc_end7-ufs_tagset_init_tags
	.cfi_endproc
	.file	155 "/mnt/disk/jenkins/ci/workspace/chipset_pipeline_release/opensource/component_code/vendor/huawei/extra/build/build_script/kirin_kernel_release" "kernel/include/linux/printk.h"
                                        // -- End function
	.type	ufs_tagset_init_tags.__key,@object // @ufs_tagset_init_tags.__key
	.local	ufs_tagset_init_tags.__key
	.comm	ufs_tagset_init_tags.__key,1,1
	.type	.L.str,@object                  // @.str
	.section	.rodata.str1.1,"aMS",@progbits,1
.L.str:
	.asciz	"&tags->lock"
	.size	.L.str, 12

	.type	.L.str.1,@object                // @.str.1
.L.str.1:
	.asciz	"\0013[BLK-IO]Failed to init tagset bitmaps!\n"
	.size	.L.str.1, 42

	.type	.L.str.2,@object                // @.str.2
.L.str.2:
	.asciz	"\0013[BLK-IO]depth = %d, reserved = %d, high prio = %d \r\n"
	.size	.L.str.2, 55

	.type	.L.str.3,@object                // @.str.3
.L.str.3:
	.asciz	"\0013[BLK-IO]%s: error nomem\n"
	.size	.L.str.3, 27

	.type	.L__func__.ufs_tagset_init_bitmap_tags,@object // @__func__.ufs_tagset_init_bitmap_tags
.L__func__.ufs_tagset_init_bitmap_tags:
	.asciz	"ufs_tagset_init_bitmap_tags"
	.size	.L__func__.ufs_tagset_init_bitmap_tags, 28
